(iimageInfo
WallInfo
p0
(dp1
S'materialIndex'
p2
I1
sS'materialName'
p3
Vroom1/wall3/wall_fused.jpg
p4
sS'imagesInfo'
p5
(lp6
(iimageInfo
ImageInfo
p7
(dp8
S'neighborImages'
p9
(iimageInfo
NeighborImages
p10
(dp11
S'topImage'
p12
(iimageInfo
NeighborPoint
p13
(dp14
S'distance'
p15
F1000000.0
sS'pointIndex'
p16
I-1
sbsS'bottomImage'
p17
(iimageInfo
NeighborPoint
p18
(dp19
g15
F1000000.0
sg16
I-1
sbsS'leftImage'
p20
(iimageInfo
NeighborPoint
p21
(dp22
g15
F1000000.0
sg16
I-1
sbsS'rightImage'
p23
(iimageInfo
NeighborPoint
p24
(dp25
g15
F1000000.0
sg16
I-1
sbsbsS'trPoint'
p26
(iimageInfo
Point
p27
(dp28
S'uvCoords'
p29
(iimageInfo
Point2d
p30
(dp31
S'y'
p32
F806.92
sS'x'
p33
F575.0
sbsS'uvCoordsNormalized'
p34
(iimageInfo
Point2d
p35
(dp36
g32
F0.42000000000000004
sg33
F1.0
sbsS'imageCoords'
p37
(iimageInfo
Point2d
p38
(dp39
g32
I0
sg33
I4751
sbsS'worldcoords'
p40
(iimageInfo
Point3d
p41
(dp42
g32
I0
sg33
I0
sS'z'
p43
I0
sbsbsS'blPoint'
p44
(iimageInfo
Point
p45
(dp46
g29
(iimageInfo
Point2d
p47
(dp48
g32
F1380.0
sg33
F0.0
sbsg34
(iimageInfo
Point2d
p49
(dp50
g32
F0.0
sg33
F0.0
sbsg37
(iimageInfo
Point2d
p51
(dp52
g32
I3167
sg33
I0
sbsg40
(iimageInfo
Point3d
p53
(dp54
g32
I0
sg33
I0
sg43
I0
sbsbsS'originY'
p55
I0
sS'originX'
p56
I0
sS'brPoint'
p57
(iimageInfo
Point
p58
(dp59
g29
(iimageInfo
Point2d
p60
(dp61
g32
F1380.0
sg33
F575.0
sbsg34
(iimageInfo
Point2d
p62
(dp63
g32
F0.0
sg33
F1.0
sbsg37
(iimageInfo
Point2d
p64
(dp65
g32
I3167
sg33
I4751
sbsg40
(iimageInfo
Point3d
p66
(dp67
g32
I0
sg33
I0
sg43
I0
sbsbsS'imageHeight'
p68
I3168
sS'imageWidth'
p69
I4752
sS'imageIndex'
p70
I0
sS'centerPoint'
p71
(iimageInfo
Point
p72
(dp73
g29
(iimageInfo
Point2d
p74
(dp75
g32
F1122.69
sg33
F326.05
sbsg34
(iimageInfo
Point2d
p76
(dp77
g32
F0.18999999999999995
sg33
F0.57
sbsg37
(iimageInfo
Point2d
p78
(dp79
g32
I1584
sg33
I2376
sbsg40
(iimageInfo
Point3d
p80
(dp81
g32
I0
sg33
I0
sg43
I0
sbsbsS'imageFileName'
p82
S'IMG_6860.JPG'
p83
sS'tlPoint'
p84
(iimageInfo
Point
p85
(dp86
g29
(iimageInfo
Point2d
p87
(dp88
g32
F806.92
sg33
F0.0
sbsg34
(iimageInfo
Point2d
p89
(dp90
g32
F0.42000000000000004
sg33
F0.0
sbsg37
(iimageInfo
Point2d
p91
(dp92
g32
I0
sg33
I0
sbsg40
(iimageInfo
Point3d
p93
(dp94
g32
I0
sg33
I0
sg43
I0
sbsbsba(iimageInfo
ImageInfo
p95
(dp96
g9
(iimageInfo
NeighborImages
p97
(dp98
g12
(iimageInfo
NeighborPoint
p99
(dp100
g15
F1000000.0
sg16
I-1
sbsg17
(iimageInfo
NeighborPoint
p101
(dp102
g15
F1000000.0
sg16
I-1
sbsg20
(iimageInfo
NeighborPoint
p103
(dp104
g15
F1000000.0
sg16
I-1
sbsg23
(iimageInfo
NeighborPoint
p105
(dp106
g15
F1000000.0
sg16
I-1
sbsbsg26
(iimageInfo
Point
p107
(dp108
g29
(iimageInfo
Point2d
p109
(dp110
g32
F380.33
sg33
F575.0
sbsg34
(iimageInfo
Point2d
p111
(dp112
g32
F0.72
sg33
F1.0
sbsg37
(iimageInfo
Point2d
p113
(dp114
g32
I0
sg33
I4751
sbsg40
(iimageInfo
Point3d
p115
(dp116
g32
I0
sg33
I0
sg43
I0
sbsbsg44
(iimageInfo
Point
p117
(dp118
g29
(iimageInfo
Point2d
p119
(dp120
g32
F1011.67
sg33
F0.0
sbsg34
(iimageInfo
Point2d
p121
(dp122
g32
F0.27
sg33
F0.0
sbsg37
(iimageInfo
Point2d
p123
(dp124
g32
I3167
sg33
I0
sbsg40
(iimageInfo
Point3d
p125
(dp126
g32
I0
sg33
I0
sg43
I0
sbsbsg55
I0
sg56
I0
sg57
(iimageInfo
Point
p127
(dp128
g29
(iimageInfo
Point2d
p129
(dp130
g32
F1011.67
sg33
F575.0
sbsg34
(iimageInfo
Point2d
p131
(dp132
g32
F0.27
sg33
F1.0
sbsg37
(iimageInfo
Point2d
p133
(dp134
g32
I3167
sg33
I4751
sbsg40
(iimageInfo
Point3d
p135
(dp136
g32
I0
sg33
I0
sg43
I0
sbsbsg68
I3168
sg69
I4752
sg70
I1
sg71
(iimageInfo
Point
p137
(dp138
g29
(iimageInfo
Point2d
p139
(dp140
g32
F696.1
sg33
F322.6
sbsg34
(iimageInfo
Point2d
p141
(dp142
g32
F0.5
sg33
F0.56
sbsg37
(iimageInfo
Point2d
p143
(dp144
g32
I1584
sg33
I2376
sbsg40
(iimageInfo
Point3d
p145
(dp146
g32
I0
sg33
I0
sg43
I0
sbsbsg82
S'IMG_6861.JPG'
p147
sg84
(iimageInfo
Point
p148
(dp149
g29
(iimageInfo
Point2d
p150
(dp151
g32
F380.33
sg33
F0.0
sbsg34
(iimageInfo
Point2d
p152
(dp153
g32
F0.72
sg33
F0.0
sbsg37
(iimageInfo
Point2d
p154
(dp155
g32
I0
sg33
I0
sbsg40
(iimageInfo
Point3d
p156
(dp157
g32
I0
sg33
I0
sg43
I0
sbsbsba(iimageInfo
ImageInfo
p158
(dp159
g9
(iimageInfo
NeighborImages
p160
(dp161
g12
(iimageInfo
NeighborPoint
p162
(dp163
g15
F1000000.0
sg16
I-1
sbsg17
(iimageInfo
NeighborPoint
p164
(dp165
g15
F1000000.0
sg16
I-1
sbsg20
(iimageInfo
NeighborPoint
p166
(dp167
g15
F1000000.0
sg16
I-1
sbsg23
(iimageInfo
NeighborPoint
p168
(dp169
g15
F1000000.0
sg16
I-1
sbsbsg26
(iimageInfo
Point
p170
(dp171
g29
(iimageInfo
Point2d
p172
(dp173
g32
F0.0
sg33
F575.0
sbsg34
(iimageInfo
Point2d
p174
(dp175
g32
F1.0
sg33
F1.0
sbsg37
(iimageInfo
Point2d
p176
(dp177
g32
I0
sg33
I4751
sbsg40
(iimageInfo
Point3d
p178
(dp179
g32
I0
sg33
I0
sg43
I0
sbsbsg44
(iimageInfo
Point
p180
(dp181
g29
(iimageInfo
Point2d
p182
(dp183
g32
F542.98
sg33
F0.0
sbsg34
(iimageInfo
Point2d
p184
(dp185
g32
F0.61
sg33
F0.0
sbsg37
(iimageInfo
Point2d
p186
(dp187
g32
I3167
sg33
I0
sbsg40
(iimageInfo
Point3d
p188
(dp189
g32
I0
sg33
I0
sg43
I0
sbsbsg55
I0
sg56
I0
sg57
(iimageInfo
Point
p190
(dp191
g29
(iimageInfo
Point2d
p192
(dp193
g32
F542.98
sg33
F575.0
sbsg34
(iimageInfo
Point2d
p194
(dp195
g32
F0.61
sg33
F1.0
sbsg37
(iimageInfo
Point2d
p196
(dp197
g32
I3167
sg33
I4751
sbsg40
(iimageInfo
Point3d
p198
(dp199
g32
I0
sg33
I0
sg43
I0
sbsbsg68
I3168
sg69
I4752
sg70
I2
sg71
(iimageInfo
Point
p200
(dp201
g29
(iimageInfo
Point2d
p202
(dp203
g32
F227.41
sg33
F332.91
sbsg34
(iimageInfo
Point2d
p204
(dp205
g32
F0.84
sg33
F0.58
sbsg37
(iimageInfo
Point2d
p206
(dp207
g32
I1584
sg33
I2376
sbsg40
(iimageInfo
Point3d
p208
(dp209
g32
I0
sg33
I0
sg43
I0
sbsbsg82
S'IMG_6862.JPG'
p210
sg84
(iimageInfo
Point
p211
(dp212
g29
(iimageInfo
Point2d
p213
(dp214
g32
F0.0
sg33
F0.0
sbsg34
(iimageInfo
Point2d
p215
(dp216
g32
F1.0
sg33
F0.0
sbsg37
(iimageInfo
Point2d
p217
(dp218
g32
I0
sg33
I0
sbsg40
(iimageInfo
Point3d
p219
(dp220
g32
I0
sg33
I0
sg43
I0
sbsbsbasS'overviewImageInfo'
p221
(iimageInfo
ImageInfo
p222
(dp223
g9
(iimageInfo
NeighborImages
p224
(dp225
g12
(iimageInfo
NeighborPoint
p226
(dp227
g15
F1000000.0
sg16
I-1
sbsg17
(iimageInfo
NeighborPoint
p228
(dp229
g15
F1000000.0
sg16
I-1
sbsg20
(iimageInfo
NeighborPoint
p230
(dp231
g15
F1000000.0
sg16
I-1
sbsg23
(iimageInfo
NeighborPoint
p232
(dp233
g15
F1000000.0
sg16
I-1
sbsbsg26
(iimageInfo
Point
p234
(dp235
g29
(iimageInfo
Point2d
p236
(dp237
g32
I0
sg33
I0
sbsg34
(iimageInfo
Point2d
p238
(dp239
g32
I0
sg33
I0
sbsg37
(iimageInfo
Point2d
p240
(dp241
g32
I0
sg33
I575
sbsg40
(iimageInfo
Point3d
p242
(dp243
g32
I0
sg33
I0
sg43
I0
sbsbsg44
(iimageInfo
Point
p244
(dp245
g29
(iimageInfo
Point2d
p246
(dp247
g32
I0
sg33
I0
sbsg34
(iimageInfo
Point2d
p248
(dp249
g32
I0
sg33
I0
sbsg37
(iimageInfo
Point2d
p250
(dp251
g32
I1380
sg33
I0
sbsg40
(iimageInfo
Point3d
p252
(dp253
g32
I0
sg33
I0
sg43
I0
sbsbsg55
I0
sg56
I0
sg57
(iimageInfo
Point
p254
(dp255
g29
(iimageInfo
Point2d
p256
(dp257
g32
I0
sg33
I0
sbsg34
(iimageInfo
Point2d
p258
(dp259
g32
I0
sg33
I0
sbsg37
(iimageInfo
Point2d
p260
(dp261
g32
I1380
sg33
I575
sbsg40
(iimageInfo
Point3d
p262
(dp263
g32
I0
sg33
I0
sg43
I0
sbsbsg68
I1381
sg69
I576
sg70
I0
sg71
(iimageInfo
Point
p264
(dp265
g29
(iimageInfo
Point2d
p266
(dp267
g32
I0
sg33
I0
sbsg34
(iimageInfo
Point2d
p268
(dp269
g32
I0
sg33
I0
sbsg37
(iimageInfo
Point2d
p270
(dp271
g32
I690
sg33
I288
sbsg40
(iimageInfo
Point3d
p272
(dp273
g32
I0
sg33
I0
sg43
I0
sbsbsg82
S'NA'
p274
sg84
(iimageInfo
Point
p275
(dp276
g29
(iimageInfo
Point2d
p277
(dp278
g32
I0
sg33
I0
sbsg34
(iimageInfo
Point2d
p279
(dp280
g32
I0
sg33
I0
sbsg37
(iimageInfo
Point2d
p281
(dp282
g32
I0
sg33
I0
sbsg40
(iimageInfo
Point3d
p283
(dp284
g32
I0
sg33
I0
sg43
I0
sbsbsbsS'faces'
p285
(lp286
(iimageInfo
Face
p287
(dp288
S'vertices'
p289
(lp290
(iimageInfo
Point
p291
(dp292
g29
(iimageInfo
Point2d
p293
(dp294
g32
I0
sg33
I0
sbsg34
(iimageInfo
Point2d
p295
(dp296
g32
I0
sg33
I1
sbsg37
(iimageInfo
Point2d
p297
(dp298
g32
I0
sg33
I0
sbsg40
(iimageInfo
Point3d
p299
(dp300
g32
F0.0
sg33
F603.0
sg43
F197.0
sbsba(iimageInfo
Point
p301
(dp302
g29
(iimageInfo
Point2d
p303
(dp304
g32
I0
sg33
I0
sbsg34
(iimageInfo
Point2d
p305
(dp306
g32
I0
sg33
I0
sbsg37
(iimageInfo
Point2d
p307
(dp308
g32
I0
sg33
I0
sbsg40
(iimageInfo
Point3d
p309
(dp310
g32
F0.0
sg33
F603.0
sg43
F101.0
sbsba(iimageInfo
Point
p311
(dp312
g29
(iimageInfo
Point2d
p313
(dp314
g32
I0
sg33
I0
sbsg34
(iimageInfo
Point2d
p315
(dp316
g32
I1
sg33
I0
sbsg37
(iimageInfo
Point2d
p317
(dp318
g32
I0
sg33
I0
sbsg40
(iimageInfo
Point3d
p319
(dp320
g32
F250.0
sg33
F603.0
sg43
F101.0
sbsbasba(iimageInfo
Face
p321
(dp322
g289
(lp323
(iimageInfo
Point
p324
(dp325
g29
(iimageInfo
Point2d
p326
(dp327
g32
I0
sg33
I0
sbsg34
(iimageInfo
Point2d
p328
(dp329
g32
I0
sg33
I1
sbsg37
(iimageInfo
Point2d
p330
(dp331
g32
I0
sg33
I0
sbsg40
(iimageInfo
Point3d
p332
(dp333
g32
F0.0
sg33
F603.0
sg43
F197.0
sbsba(iimageInfo
Point
p334
(dp335
g29
(iimageInfo
Point2d
p336
(dp337
g32
I0
sg33
I0
sbsg34
(iimageInfo
Point2d
p338
(dp339
g32
I1
sg33
I0
sbsg37
(iimageInfo
Point2d
p340
(dp341
g32
I0
sg33
I0
sbsg40
(iimageInfo
Point3d
p342
(dp343
g32
F250.0
sg33
F603.0
sg43
F101.0
sbsba(iimageInfo
Point
p344
(dp345
g29
(iimageInfo
Point2d
p346
(dp347
g32
I0
sg33
I0
sbsg34
(iimageInfo
Point2d
p348
(dp349
g32
I1
sg33
I1
sbsg37
(iimageInfo
Point2d
p350
(dp351
g32
I0
sg33
I0
sbsg40
(iimageInfo
Point3d
p352
(dp353
g32
F250.0
sg33
F603.0
sg43
F197.0
sbsbasbasb.