(iimageInfo
WallInfo
p0
(dp1
S'materialIndex'
p2
I2
sS'materialName'
p3
Vroom1/wall4/wall_fused.jpg
p4
sS'imagesInfo'
p5
(lp6
(iimageInfo
ImageInfo
p7
(dp8
S'neighborImages'
p9
(iimageInfo
NeighborImages
p10
(dp11
S'topImage'
p12
(iimageInfo
NeighborPoint
p13
(dp14
S'distance'
p15
F1000000.0
sS'pointIndex'
p16
I-1
sbsS'bottomImage'
p17
(iimageInfo
NeighborPoint
p18
(dp19
g15
F1000000.0
sg16
I-1
sbsS'leftImage'
p20
(iimageInfo
NeighborPoint
p21
(dp22
g15
F1000000.0
sg16
I-1
sbsS'rightImage'
p23
(iimageInfo
NeighborPoint
p24
(dp25
g15
F1000000.0
sg16
I-1
sbsbsS'trPoint'
p26
(iimageInfo
Point
p27
(dp28
S'uvCoords'
p29
(iimageInfo
Point2d
p30
(dp31
S'y'
p32
F58.53
sS'x'
p33
F462.83
sbsS'uvCoordsNormalized'
p34
(iimageInfo
Point2d
p35
(dp36
g32
F0.84
sg33
F0.97
sbsS'imageCoords'
p37
(iimageInfo
Point2d
p38
(dp39
g32
I0
sg33
I4751
sbsS'worldcoords'
p40
(iimageInfo
Point3d
p41
(dp42
g32
I0
sg33
I0
sS'z'
p43
I0
sbsbsS'blPoint'
p44
(iimageInfo
Point
p45
(dp46
g29
(iimageInfo
Point2d
p47
(dp48
g32
F376.0
sg33
F0.0
sbsg34
(iimageInfo
Point2d
p49
(dp50
g32
F0.0
sg33
F0.0
sbsg37
(iimageInfo
Point2d
p51
(dp52
g32
I3167
sg33
I0
sbsg40
(iimageInfo
Point3d
p53
(dp54
g32
I0
sg33
I0
sg43
I0
sbsbsS'originY'
p55
I0
sS'originX'
p56
I0
sS'brPoint'
p57
(iimageInfo
Point
p58
(dp59
g29
(iimageInfo
Point2d
p60
(dp61
g32
F376.0
sg33
F477.0
sbsg34
(iimageInfo
Point2d
p62
(dp63
g32
F0.0
sg33
F1.0
sbsg37
(iimageInfo
Point2d
p64
(dp65
g32
I3167
sg33
I4751
sbsg40
(iimageInfo
Point3d
p66
(dp67
g32
I0
sg33
I0
sg43
I0
sbsbsS'imageHeight'
p68
I3168
sS'imageWidth'
p69
I4752
sS'imageIndex'
p70
I0
sS'centerPoint'
p71
(iimageInfo
Point
p72
(dp73
g29
(iimageInfo
Point2d
p74
(dp75
g32
F231.83
sg33
F173.06
sbsg34
(iimageInfo
Point2d
p76
(dp77
g32
F0.39
sg33
F0.36
sbsg37
(iimageInfo
Point2d
p78
(dp79
g32
I1584
sg33
I2376
sbsg40
(iimageInfo
Point3d
p80
(dp81
g32
I0
sg33
I0
sg43
I0
sbsbsS'imageFileName'
p82
S'IMG_6873.JPG'
p83
sS'tlPoint'
p84
(iimageInfo
Point
p85
(dp86
g29
(iimageInfo
Point2d
p87
(dp88
g32
F83.24
sg33
F0.0
sbsg34
(iimageInfo
Point2d
p89
(dp90
g32
F0.78
sg33
F0.0
sbsg37
(iimageInfo
Point2d
p91
(dp92
g32
I0
sg33
I0
sbsg40
(iimageInfo
Point3d
p93
(dp94
g32
I0
sg33
I0
sg43
I0
sbsbsba(iimageInfo
ImageInfo
p95
(dp96
g9
(iimageInfo
NeighborImages
p97
(dp98
g12
(iimageInfo
NeighborPoint
p99
(dp100
g15
F1000000.0
sg16
I-1
sbsg17
(iimageInfo
NeighborPoint
p101
(dp102
g15
F1000000.0
sg16
I-1
sbsg20
(iimageInfo
NeighborPoint
p103
(dp104
g15
F1000000.0
sg16
I-1
sbsg23
(iimageInfo
NeighborPoint
p105
(dp106
g15
F1000000.0
sg16
I-1
sbsbsg26
(iimageInfo
Point
p107
(dp108
g29
(iimageInfo
Point2d
p109
(dp110
g32
F75.29
sg33
F477.0
sbsg34
(iimageInfo
Point2d
p111
(dp112
g32
F0.8
sg33
F1.0
sbsg37
(iimageInfo
Point2d
p113
(dp114
g32
I0
sg33
I4751
sbsg40
(iimageInfo
Point3d
p115
(dp116
g32
I0
sg33
I0
sg43
I0
sbsbsg44
(iimageInfo
Point
p117
(dp118
g29
(iimageInfo
Point2d
p119
(dp120
g32
F355.6
sg33
F133.44
sbsg34
(iimageInfo
Point2d
p121
(dp122
g32
F0.06000000000000005
sg33
F0.28
sbsg37
(iimageInfo
Point2d
p123
(dp124
g32
I3167
sg33
I0
sbsg40
(iimageInfo
Point3d
p125
(dp126
g32
I0
sg33
I0
sg43
I0
sbsbsg55
I0
sg56
I0
sg57
(iimageInfo
Point
p127
(dp128
g29
(iimageInfo
Point2d
p129
(dp130
g32
F355.6
sg33
F477.0
sbsg34
(iimageInfo
Point2d
p131
(dp132
g32
F0.06000000000000005
sg33
F1.0
sbsg37
(iimageInfo
Point2d
p133
(dp134
g32
I3167
sg33
I4751
sbsg40
(iimageInfo
Point3d
p135
(dp136
g32
I0
sg33
I0
sg43
I0
sbsbsg68
I3168
sg69
I4752
sg70
I1
sg71
(iimageInfo
Point
p137
(dp138
g29
(iimageInfo
Point2d
p139
(dp140
g32
F215.49
sg33
F343.74
sbsg34
(iimageInfo
Point2d
p141
(dp142
g32
F0.43000000000000005
sg33
F0.72
sbsg37
(iimageInfo
Point2d
p143
(dp144
g32
I1584
sg33
I2376
sbsg40
(iimageInfo
Point3d
p145
(dp146
g32
I0
sg33
I0
sg43
I0
sbsbsg82
S'IMG_6874.JPG'
p147
sg84
(iimageInfo
Point
p148
(dp149
g29
(iimageInfo
Point2d
p150
(dp151
g32
F75.29
sg33
F133.44
sbsg34
(iimageInfo
Point2d
p152
(dp153
g32
F0.8
sg33
F0.28
sbsg37
(iimageInfo
Point2d
p154
(dp155
g32
I0
sg33
I0
sbsg40
(iimageInfo
Point3d
p156
(dp157
g32
I0
sg33
I0
sg43
I0
sbsbsba(iimageInfo
ImageInfo
p158
(dp159
g9
(iimageInfo
NeighborImages
p160
(dp161
g12
(iimageInfo
NeighborPoint
p162
(dp163
g15
F1000000.0
sg16
I-1
sbsg17
(iimageInfo
NeighborPoint
p164
(dp165
g15
F1000000.0
sg16
I-1
sbsg20
(iimageInfo
NeighborPoint
p166
(dp167
g15
F1000000.0
sg16
I-1
sbsg23
(iimageInfo
NeighborPoint
p168
(dp169
g15
F1000000.0
sg16
I-1
sbsbsg26
(iimageInfo
Point
p170
(dp171
g29
(iimageInfo
Point2d
p172
(dp173
g32
F2.11
sg33
F477.0
sbsg34
(iimageInfo
Point2d
p174
(dp175
g32
F0.99
sg33
F1.0
sbsg37
(iimageInfo
Point2d
p176
(dp177
g32
I0
sg33
I4751
sbsg40
(iimageInfo
Point3d
p178
(dp179
g32
I0
sg33
I0
sg43
I0
sbsbsg44
(iimageInfo
Point
p180
(dp181
g29
(iimageInfo
Point2d
p182
(dp183
g32
F226.36
sg33
F198.41
sbsg34
(iimageInfo
Point2d
p184
(dp185
g32
F0.4
sg33
F0.42
sbsg37
(iimageInfo
Point2d
p186
(dp187
g32
I3167
sg33
I0
sbsg40
(iimageInfo
Point3d
p188
(dp189
g32
I0
sg33
I0
sg43
I0
sbsbsg55
I0
sg56
I0
sg57
(iimageInfo
Point
p190
(dp191
g29
(iimageInfo
Point2d
p192
(dp193
g32
F226.36
sg33
F477.0
sbsg34
(iimageInfo
Point2d
p194
(dp195
g32
F0.4
sg33
F1.0
sbsg37
(iimageInfo
Point2d
p196
(dp197
g32
I3167
sg33
I4751
sbsg40
(iimageInfo
Point3d
p198
(dp199
g32
I0
sg33
I0
sg43
I0
sbsbsg68
I3168
sg69
I4752
sg70
I2
sg71
(iimageInfo
Point
p200
(dp201
g29
(iimageInfo
Point2d
p202
(dp203
g32
F114.27
sg33
F366.65
sbsg34
(iimageInfo
Point2d
p204
(dp205
g32
F0.7
sg33
F0.77
sbsg37
(iimageInfo
Point2d
p206
(dp207
g32
I1584
sg33
I2376
sbsg40
(iimageInfo
Point3d
p208
(dp209
g32
I0
sg33
I0
sg43
I0
sbsbsg82
S'IMG_6875.JPG'
p210
sg84
(iimageInfo
Point
p211
(dp212
g29
(iimageInfo
Point2d
p213
(dp214
g32
F2.11
sg33
F198.41
sbsg34
(iimageInfo
Point2d
p215
(dp216
g32
F0.99
sg33
F0.42
sbsg37
(iimageInfo
Point2d
p217
(dp218
g32
I0
sg33
I0
sbsg40
(iimageInfo
Point3d
p219
(dp220
g32
I0
sg33
I0
sg43
I0
sbsbsba(iimageInfo
ImageInfo
p221
(dp222
g9
(iimageInfo
NeighborImages
p223
(dp224
g12
(iimageInfo
NeighborPoint
p225
(dp226
g15
F1000000.0
sg16
I-1
sbsg17
(iimageInfo
NeighborPoint
p227
(dp228
g15
F1000000.0
sg16
I-1
sbsg20
(iimageInfo
NeighborPoint
p229
(dp230
g15
F1000000.0
sg16
I-1
sbsg23
(iimageInfo
NeighborPoint
p231
(dp232
g15
F1000000.0
sg16
I-1
sbsbsg26
(iimageInfo
Point
p233
(dp234
g29
(iimageInfo
Point2d
p235
(dp236
g32
F0.0
sg33
F332.16
sbsg34
(iimageInfo
Point2d
p237
(dp238
g32
F1.0
sg33
F0.69
sbsg37
(iimageInfo
Point2d
p239
(dp240
g32
I0
sg33
I4751
sbsg40
(iimageInfo
Point3d
p241
(dp242
g32
I0
sg33
I0
sg43
I0
sbsbsg44
(iimageInfo
Point
p243
(dp244
g29
(iimageInfo
Point2d
p245
(dp246
g32
F228.81
sg33
F0.0
sbsg34
(iimageInfo
Point2d
p247
(dp248
g32
F0.39
sg33
F0.0
sbsg37
(iimageInfo
Point2d
p249
(dp250
g32
I3167
sg33
I0
sbsg40
(iimageInfo
Point3d
p251
(dp252
g32
I0
sg33
I0
sg43
I0
sbsbsg55
I0
sg56
I0
sg57
(iimageInfo
Point
p253
(dp254
g29
(iimageInfo
Point2d
p255
(dp256
g32
F228.81
sg33
F332.16
sbsg34
(iimageInfo
Point2d
p257
(dp258
g32
F0.39
sg33
F0.69
sbsg37
(iimageInfo
Point2d
p259
(dp260
g32
I3167
sg33
I4751
sbsg40
(iimageInfo
Point3d
p261
(dp262
g32
I0
sg33
I0
sg43
I0
sbsbsg68
I3168
sg69
I4752
sg70
I3
sg71
(iimageInfo
Point
p263
(dp264
g29
(iimageInfo
Point2d
p265
(dp266
g32
F107.38
sg33
F149.97
sbsg34
(iimageInfo
Point2d
p267
(dp268
g32
F0.72
sg33
F0.31
sbsg37
(iimageInfo
Point2d
p269
(dp270
g32
I1584
sg33
I2376
sbsg40
(iimageInfo
Point3d
p271
(dp272
g32
I0
sg33
I0
sg43
I0
sbsbsg82
S'IMG_6876.JPG'
p273
sg84
(iimageInfo
Point
p274
(dp275
g29
(iimageInfo
Point2d
p276
(dp277
g32
F0.0
sg33
F0.0
sbsg34
(iimageInfo
Point2d
p278
(dp279
g32
F1.0
sg33
F0.0
sbsg37
(iimageInfo
Point2d
p280
(dp281
g32
I0
sg33
I0
sbsg40
(iimageInfo
Point3d
p282
(dp283
g32
I0
sg33
I0
sg43
I0
sbsbsba(iimageInfo
ImageInfo
p284
(dp285
g9
(iimageInfo
NeighborImages
p286
(dp287
g12
(iimageInfo
NeighborPoint
p288
(dp289
g15
F1000000.0
sg16
I-1
sbsg17
(iimageInfo
NeighborPoint
p290
(dp291
g15
F1000000.0
sg16
I-1
sbsg20
(iimageInfo
NeighborPoint
p292
(dp293
g15
F1000000.0
sg16
I-1
sbsg23
(iimageInfo
NeighborPoint
p294
(dp295
g15
F1000000.0
sg16
I-1
sbsbsg26
(iimageInfo
Point
p296
(dp297
g29
(iimageInfo
Point2d
p298
(dp299
g32
F0.0
sg33
F281.76
sbsg34
(iimageInfo
Point2d
p300
(dp301
g32
F1.0
sg33
F0.59
sbsg37
(iimageInfo
Point2d
p302
(dp303
g32
I0
sg33
I4751
sbsg40
(iimageInfo
Point3d
p304
(dp305
g32
I0
sg33
I0
sg43
I0
sbsbsg44
(iimageInfo
Point
p306
(dp307
g29
(iimageInfo
Point2d
p308
(dp309
g32
F200.04
sg33
F0.0
sbsg34
(iimageInfo
Point2d
p310
(dp311
g32
F0.47
sg33
F0.0
sbsg37
(iimageInfo
Point2d
p312
(dp313
g32
I3167
sg33
I0
sbsg40
(iimageInfo
Point3d
p314
(dp315
g32
I0
sg33
I0
sg43
I0
sbsbsg55
I0
sg56
I0
sg57
(iimageInfo
Point
p316
(dp317
g29
(iimageInfo
Point2d
p318
(dp319
g32
F200.04
sg33
F281.76
sbsg34
(iimageInfo
Point2d
p320
(dp321
g32
F0.47
sg33
F0.59
sbsg37
(iimageInfo
Point2d
p322
(dp323
g32
I3167
sg33
I4751
sbsg40
(iimageInfo
Point3d
p324
(dp325
g32
I0
sg33
I0
sg43
I0
sbsbsg68
I3168
sg69
I4752
sg70
I4
sg71
(iimageInfo
Point
p326
(dp327
g29
(iimageInfo
Point2d
p328
(dp329
g32
F78.61
sg33
F99.58
sbsg34
(iimageInfo
Point2d
p330
(dp331
g32
F0.79
sg33
F0.21
sbsg37
(iimageInfo
Point2d
p332
(dp333
g32
I1584
sg33
I2376
sbsg40
(iimageInfo
Point3d
p334
(dp335
g32
I0
sg33
I0
sg43
I0
sbsbsg82
S'IMG_6877.JPG'
p336
sg84
(iimageInfo
Point
p337
(dp338
g29
(iimageInfo
Point2d
p339
(dp340
g32
F0.0
sg33
F0.0
sbsg34
(iimageInfo
Point2d
p341
(dp342
g32
F1.0
sg33
F0.0
sbsg37
(iimageInfo
Point2d
p343
(dp344
g32
I0
sg33
I0
sbsg40
(iimageInfo
Point3d
p345
(dp346
g32
I0
sg33
I0
sg43
I0
sbsbsba(iimageInfo
ImageInfo
p347
(dp348
g9
(iimageInfo
NeighborImages
p349
(dp350
g12
(iimageInfo
NeighborPoint
p351
(dp352
g15
F1000000.0
sg16
I-1
sbsg17
(iimageInfo
NeighborPoint
p353
(dp354
g15
F1000000.0
sg16
I-1
sbsg20
(iimageInfo
NeighborPoint
p355
(dp356
g15
F1000000.0
sg16
I-1
sbsg23
(iimageInfo
NeighborPoint
p357
(dp358
g15
F1000000.0
sg16
I-1
sbsbsg26
(iimageInfo
Point
p359
(dp360
g29
(iimageInfo
Point2d
p361
(dp362
g32
F0.0
sg33
F477.0
sbsg34
(iimageInfo
Point2d
p363
(dp364
g32
F1.0
sg33
F1.0
sbsg37
(iimageInfo
Point2d
p365
(dp366
g32
I0
sg33
I4751
sbsg40
(iimageInfo
Point3d
p367
(dp368
g32
I0
sg33
I0
sg43
I0
sbsbsg44
(iimageInfo
Point
p369
(dp370
g29
(iimageInfo
Point2d
p371
(dp372
g32
F198.42
sg33
F183.27
sbsg34
(iimageInfo
Point2d
p373
(dp374
g32
F0.47
sg33
F0.38
sbsg37
(iimageInfo
Point2d
p375
(dp376
g32
I3167
sg33
I0
sbsg40
(iimageInfo
Point3d
p377
(dp378
g32
I0
sg33
I0
sg43
I0
sbsbsg55
I0
sg56
I0
sg57
(iimageInfo
Point
p379
(dp380
g29
(iimageInfo
Point2d
p381
(dp382
g32
F198.42
sg33
F477.0
sbsg34
(iimageInfo
Point2d
p383
(dp384
g32
F0.47
sg33
F1.0
sbsg37
(iimageInfo
Point2d
p385
(dp386
g32
I3167
sg33
I4751
sbsg40
(iimageInfo
Point3d
p387
(dp388
g32
I0
sg33
I0
sg43
I0
sbsbsg68
I3168
sg69
I4752
sg70
I5
sg71
(iimageInfo
Point
p389
(dp390
g29
(iimageInfo
Point2d
p391
(dp392
g32
F76.99
sg33
F365.53
sbsg34
(iimageInfo
Point2d
p393
(dp394
g32
F0.8
sg33
F0.76
sbsg37
(iimageInfo
Point2d
p395
(dp396
g32
I1584
sg33
I2376
sbsg40
(iimageInfo
Point3d
p397
(dp398
g32
I0
sg33
I0
sg43
I0
sbsbsg82
S'IMG_6878.JPG'
p399
sg84
(iimageInfo
Point
p400
(dp401
g29
(iimageInfo
Point2d
p402
(dp403
g32
F0.0
sg33
F183.27
sbsg34
(iimageInfo
Point2d
p404
(dp405
g32
F1.0
sg33
F0.38
sbsg37
(iimageInfo
Point2d
p406
(dp407
g32
I0
sg33
I0
sbsg40
(iimageInfo
Point3d
p408
(dp409
g32
I0
sg33
I0
sg43
I0
sbsbsbasS'overviewImageInfo'
p410
(iimageInfo
ImageInfo
p411
(dp412
g9
(iimageInfo
NeighborImages
p413
(dp414
g12
(iimageInfo
NeighborPoint
p415
(dp416
g15
F1000000.0
sg16
I-1
sbsg17
(iimageInfo
NeighborPoint
p417
(dp418
g15
F1000000.0
sg16
I-1
sbsg20
(iimageInfo
NeighborPoint
p419
(dp420
g15
F1000000.0
sg16
I-1
sbsg23
(iimageInfo
NeighborPoint
p421
(dp422
g15
F1000000.0
sg16
I-1
sbsbsg26
(iimageInfo
Point
p423
(dp424
g29
(iimageInfo
Point2d
p425
(dp426
g32
I0
sg33
I0
sbsg34
(iimageInfo
Point2d
p427
(dp428
g32
I0
sg33
I0
sbsg37
(iimageInfo
Point2d
p429
(dp430
g32
I0
sg33
I477
sbsg40
(iimageInfo
Point3d
p431
(dp432
g32
I0
sg33
I0
sg43
I0
sbsbsg44
(iimageInfo
Point
p433
(dp434
g29
(iimageInfo
Point2d
p435
(dp436
g32
I0
sg33
I0
sbsg34
(iimageInfo
Point2d
p437
(dp438
g32
I0
sg33
I0
sbsg37
(iimageInfo
Point2d
p439
(dp440
g32
I376
sg33
I0
sbsg40
(iimageInfo
Point3d
p441
(dp442
g32
I0
sg33
I0
sg43
I0
sbsbsg55
I0
sg56
I0
sg57
(iimageInfo
Point
p443
(dp444
g29
(iimageInfo
Point2d
p445
(dp446
g32
I0
sg33
I0
sbsg34
(iimageInfo
Point2d
p447
(dp448
g32
I0
sg33
I0
sbsg37
(iimageInfo
Point2d
p449
(dp450
g32
I376
sg33
I477
sbsg40
(iimageInfo
Point3d
p451
(dp452
g32
I0
sg33
I0
sg43
I0
sbsbsg68
I377
sg69
I478
sg70
I0
sg71
(iimageInfo
Point
p453
(dp454
g29
(iimageInfo
Point2d
p455
(dp456
g32
I0
sg33
I0
sbsg34
(iimageInfo
Point2d
p457
(dp458
g32
I0
sg33
I0
sbsg37
(iimageInfo
Point2d
p459
(dp460
g32
I188
sg33
I239
sbsg40
(iimageInfo
Point3d
p461
(dp462
g32
I0
sg33
I0
sg43
I0
sbsbsg82
S'NA'
p463
sg84
(iimageInfo
Point
p464
(dp465
g29
(iimageInfo
Point2d
p466
(dp467
g32
I0
sg33
I0
sbsg34
(iimageInfo
Point2d
p468
(dp469
g32
I0
sg33
I0
sbsg37
(iimageInfo
Point2d
p470
(dp471
g32
I0
sg33
I0
sbsg40
(iimageInfo
Point3d
p472
(dp473
g32
I0
sg33
I0
sg43
I0
sbsbsbsS'faces'
p474
(lp475
(iimageInfo
Face
p476
(dp477
S'vertices'
p478
(lp479
(iimageInfo
Point
p480
(dp481
g29
(iimageInfo
Point2d
p482
(dp483
g32
I0
sg33
I0
sbsg34
(iimageInfo
Point2d
p484
(dp485
g32
I0
sg33
I1
sbsg37
(iimageInfo
Point2d
p486
(dp487
g32
I0
sg33
I0
sbsg40
(iimageInfo
Point3d
p488
(dp489
g32
F0.0
sg33
F1201.0
sg43
F101.0
sbsba(iimageInfo
Point
p490
(dp491
g29
(iimageInfo
Point2d
p492
(dp493
g32
I0
sg33
I0
sbsg34
(iimageInfo
Point2d
p494
(dp495
g32
I0
sg33
I0
sbsg37
(iimageInfo
Point2d
p496
(dp497
g32
I0
sg33
I0
sbsg40
(iimageInfo
Point3d
p498
(dp499
g32
F0.0
sg33
F603.0
sg43
F101.0
sbsba(iimageInfo
Point
p500
(dp501
g29
(iimageInfo
Point2d
p502
(dp503
g32
I0
sg33
I0
sbsg34
(iimageInfo
Point2d
p504
(dp505
g32
I1
sg33
I0
sbsg37
(iimageInfo
Point2d
p506
(dp507
g32
I0
sg33
I0
sbsg40
(iimageInfo
Point3d
p508
(dp509
g32
F250.0
sg33
F603.0
sg43
F101.0
sbsbasba(iimageInfo
Face
p510
(dp511
g478
(lp512
(iimageInfo
Point
p513
(dp514
g29
(iimageInfo
Point2d
p515
(dp516
g32
I0
sg33
I0
sbsg34
(iimageInfo
Point2d
p517
(dp518
g32
I0
sg33
I1
sbsg37
(iimageInfo
Point2d
p519
(dp520
g32
I0
sg33
I0
sbsg40
(iimageInfo
Point3d
p521
(dp522
g32
F0.0
sg33
F1201.0
sg43
F101.0
sbsba(iimageInfo
Point
p523
(dp524
g29
(iimageInfo
Point2d
p525
(dp526
g32
I0
sg33
I0
sbsg34
(iimageInfo
Point2d
p527
(dp528
g32
I1
sg33
I0
sbsg37
(iimageInfo
Point2d
p529
(dp530
g32
I0
sg33
I0
sbsg40
(iimageInfo
Point3d
p531
(dp532
g32
F250.0
sg33
F603.0
sg43
F101.0
sbsba(iimageInfo
Point
p533
(dp534
g29
(iimageInfo
Point2d
p535
(dp536
g32
I0
sg33
I0
sbsg34
(iimageInfo
Point2d
p537
(dp538
g32
I1
sg33
I1
sbsg37
(iimageInfo
Point2d
p539
(dp540
g32
I0
sg33
I0
sbsg40
(iimageInfo
Point3d
p541
(dp542
g32
F250.0
sg33
F1201.0
sg43
F101.0
sbsbasbasb.