(iimageInfo
WallInfo
p0
(dp1
S'materialIndex'
p2
I3
sS'materialName'
p3
Vroom1/wall5/wall_fused.jpg
p4
sS'imagesInfo'
p5
(lp6
(iimageInfo
ImageInfo
p7
(dp8
S'neighborImages'
p9
(iimageInfo
NeighborImages
p10
(dp11
S'topImage'
p12
(iimageInfo
NeighborPoint
p13
(dp14
S'distance'
p15
F1000000.0
sS'pointIndex'
p16
I-1
sbsS'bottomImage'
p17
(iimageInfo
NeighborPoint
p18
(dp19
g15
F1000000.0
sg16
I-1
sbsS'leftImage'
p20
(iimageInfo
NeighborPoint
p21
(dp22
g15
F1000000.0
sg16
I-1
sbsS'rightImage'
p23
(iimageInfo
NeighborPoint
p24
(dp25
g15
F1000000.0
sg16
I-1
sbsbsS'trPoint'
p26
(iimageInfo
Point
p27
(dp28
S'uvCoords'
p29
(iimageInfo
Point2d
p30
(dp31
S'y'
p32
F260.27
sS'x'
p33
F709.66
sbsS'uvCoordsNormalized'
p34
(iimageInfo
Point2d
p35
(dp36
g32
F0.6599999999999999
sg33
F0.26
sbsS'imageCoords'
p37
(iimageInfo
Point2d
p38
(dp39
g32
I0
sg33
I4751
sbsS'worldcoords'
p40
(iimageInfo
Point3d
p41
(dp42
g32
I0
sg33
I0
sS'z'
p43
I0
sbsbsS'blPoint'
p44
(iimageInfo
Point
p45
(dp46
g29
(iimageInfo
Point2d
p47
(dp48
g32
F766.0
sg33
F0.0
sbsg34
(iimageInfo
Point2d
p49
(dp50
g32
F0.0
sg33
F0.0
sbsg37
(iimageInfo
Point2d
p51
(dp52
g32
I3167
sg33
I0
sbsg40
(iimageInfo
Point3d
p53
(dp54
g32
I0
sg33
I0
sg43
I0
sbsbsS'originY'
p55
I0
sS'originX'
p56
I0
sS'brPoint'
p57
(iimageInfo
Point
p58
(dp59
g29
(iimageInfo
Point2d
p60
(dp61
g32
F766.0
sg33
F706.86
sbsg34
(iimageInfo
Point2d
p62
(dp63
g32
F0.0
sg33
F0.26
sbsg37
(iimageInfo
Point2d
p64
(dp65
g32
I3167
sg33
I4751
sbsg40
(iimageInfo
Point3d
p66
(dp67
g32
I0
sg33
I0
sg43
I0
sbsbsS'imageHeight'
p68
I3168
sS'imageWidth'
p69
I4752
sS'imageIndex'
p70
I0
sS'centerPoint'
p71
(iimageInfo
Point
p72
(dp73
g29
(iimageInfo
Point2d
p74
(dp75
g32
F543.32
sg33
F282.23
sbsg34
(iimageInfo
Point2d
p76
(dp77
g32
F0.29000000000000004
sg33
F0.1
sbsg37
(iimageInfo
Point2d
p78
(dp79
g32
I1584
sg33
I2376
sbsg40
(iimageInfo
Point3d
p80
(dp81
g32
I0
sg33
I0
sg43
I0
sbsbsS'imageFileName'
p82
S'IMG_6881.JPG'
p83
sS'tlPoint'
p84
(iimageInfo
Point
p85
(dp86
g29
(iimageInfo
Point2d
p87
(dp88
g32
F262.0
sg33
F0.0
sbsg34
(iimageInfo
Point2d
p89
(dp90
g32
F0.6599999999999999
sg33
F0.0
sbsg37
(iimageInfo
Point2d
p91
(dp92
g32
I0
sg33
I0
sbsg40
(iimageInfo
Point3d
p93
(dp94
g32
I0
sg33
I0
sg43
I0
sbsbsba(iimageInfo
ImageInfo
p95
(dp96
g9
(iimageInfo
NeighborImages
p97
(dp98
g12
(iimageInfo
NeighborPoint
p99
(dp100
g15
F1000000.0
sg16
I-1
sbsg17
(iimageInfo
NeighborPoint
p101
(dp102
g15
F1000000.0
sg16
I-1
sbsg20
(iimageInfo
NeighborPoint
p103
(dp104
g15
F1000000.0
sg16
I-1
sbsg23
(iimageInfo
NeighborPoint
p105
(dp106
g15
F1000000.0
sg16
I-1
sbsbsg26
(iimageInfo
Point
p107
(dp108
g29
(iimageInfo
Point2d
p109
(dp110
g32
F233.82
sg33
F1072.26
sbsg34
(iimageInfo
Point2d
p111
(dp112
g32
F0.7
sg33
F0.39
sbsg37
(iimageInfo
Point2d
p113
(dp114
g32
I0
sg33
I4751
sbsg40
(iimageInfo
Point3d
p115
(dp116
g32
I0
sg33
I0
sg43
I0
sbsbsg44
(iimageInfo
Point
p117
(dp118
g29
(iimageInfo
Point2d
p119
(dp120
g32
F766.0
sg33
F211.4
sbsg34
(iimageInfo
Point2d
p121
(dp122
g32
F0.0
sg33
F0.08
sbsg37
(iimageInfo
Point2d
p123
(dp124
g32
I3167
sg33
I0
sbsg40
(iimageInfo
Point3d
p125
(dp126
g32
I0
sg33
I0
sg43
I0
sbsbsg55
I0
sg56
I0
sg57
(iimageInfo
Point
p127
(dp128
g29
(iimageInfo
Point2d
p129
(dp130
g32
F766.0
sg33
F1072.26
sbsg34
(iimageInfo
Point2d
p131
(dp132
g32
F0.0
sg33
F0.39
sbsg37
(iimageInfo
Point2d
p133
(dp134
g32
I3167
sg33
I4751
sbsg40
(iimageInfo
Point3d
p135
(dp136
g32
I0
sg33
I0
sg43
I0
sbsbsg68
I3168
sg69
I4752
sg70
I1
sg71
(iimageInfo
Point
p137
(dp138
g29
(iimageInfo
Point2d
p139
(dp140
g32
F520.83
sg33
F641.92
sbsg34
(iimageInfo
Point2d
p141
(dp142
g32
F0.31999999999999995
sg33
F0.23
sbsg37
(iimageInfo
Point2d
p143
(dp144
g32
I1584
sg33
I2376
sbsg40
(iimageInfo
Point3d
p145
(dp146
g32
I0
sg33
I0
sg43
I0
sbsbsg82
S'IMG_6882.JPG'
p147
sg84
(iimageInfo
Point
p148
(dp149
g29
(iimageInfo
Point2d
p150
(dp151
g32
F233.82
sg33
F211.4
sbsg34
(iimageInfo
Point2d
p152
(dp153
g32
F0.7
sg33
F0.08
sbsg37
(iimageInfo
Point2d
p154
(dp155
g32
I0
sg33
I0
sbsg40
(iimageInfo
Point3d
p156
(dp157
g32
I0
sg33
I0
sg43
I0
sbsbsba(iimageInfo
ImageInfo
p158
(dp159
g9
(iimageInfo
NeighborImages
p160
(dp161
g12
(iimageInfo
NeighborPoint
p162
(dp163
g15
F1000000.0
sg16
I-1
sbsg17
(iimageInfo
NeighborPoint
p164
(dp165
g15
F1000000.0
sg16
I-1
sbsg20
(iimageInfo
NeighborPoint
p166
(dp167
g15
F1000000.0
sg16
I-1
sbsg23
(iimageInfo
NeighborPoint
p168
(dp169
g15
F1000000.0
sg16
I-1
sbsbsg26
(iimageInfo
Point
p170
(dp171
g29
(iimageInfo
Point2d
p172
(dp173
g32
F218.2
sg33
F1361.66
sbsg34
(iimageInfo
Point2d
p174
(dp175
g32
F0.72
sg33
F0.5
sbsg37
(iimageInfo
Point2d
p176
(dp177
g32
I0
sg33
I4751
sbsg40
(iimageInfo
Point3d
p178
(dp179
g32
I0
sg33
I0
sg43
I0
sbsbsg44
(iimageInfo
Point
p180
(dp181
g29
(iimageInfo
Point2d
p182
(dp183
g32
F766.0
sg33
F500.8
sbsg34
(iimageInfo
Point2d
p184
(dp185
g32
F0.0
sg33
F0.18
sbsg37
(iimageInfo
Point2d
p186
(dp187
g32
I3167
sg33
I0
sbsg40
(iimageInfo
Point3d
p188
(dp189
g32
I0
sg33
I0
sg43
I0
sbsbsg55
I0
sg56
I0
sg57
(iimageInfo
Point
p190
(dp191
g29
(iimageInfo
Point2d
p192
(dp193
g32
F766.0
sg33
F1361.66
sbsg34
(iimageInfo
Point2d
p194
(dp195
g32
F0.0
sg33
F0.5
sbsg37
(iimageInfo
Point2d
p196
(dp197
g32
I3167
sg33
I4751
sbsg40
(iimageInfo
Point3d
p198
(dp199
g32
I0
sg33
I0
sg43
I0
sbsbsg68
I3168
sg69
I4752
sg70
I2
sg71
(iimageInfo
Point
p200
(dp201
g29
(iimageInfo
Point2d
p202
(dp203
g32
F505.21
sg33
F931.32
sbsg34
(iimageInfo
Point2d
p204
(dp205
g32
F0.33999999999999997
sg33
F0.34
sbsg37
(iimageInfo
Point2d
p206
(dp207
g32
I1584
sg33
I2376
sbsg40
(iimageInfo
Point3d
p208
(dp209
g32
I0
sg33
I0
sg43
I0
sbsbsg82
S'IMG_6883.JPG'
p210
sg84
(iimageInfo
Point
p211
(dp212
g29
(iimageInfo
Point2d
p213
(dp214
g32
F218.2
sg33
F500.8
sbsg34
(iimageInfo
Point2d
p215
(dp216
g32
F0.72
sg33
F0.18
sbsg37
(iimageInfo
Point2d
p217
(dp218
g32
I0
sg33
I0
sbsg40
(iimageInfo
Point3d
p219
(dp220
g32
I0
sg33
I0
sg43
I0
sbsbsba(iimageInfo
ImageInfo
p221
(dp222
g9
(iimageInfo
NeighborImages
p223
(dp224
g12
(iimageInfo
NeighborPoint
p225
(dp226
g15
F1000000.0
sg16
I-1
sbsg17
(iimageInfo
NeighborPoint
p227
(dp228
g15
F1000000.0
sg16
I-1
sbsg20
(iimageInfo
NeighborPoint
p229
(dp230
g15
F1000000.0
sg16
I-1
sbsg23
(iimageInfo
NeighborPoint
p231
(dp232
g15
F1000000.0
sg16
I-1
sbsbsg26
(iimageInfo
Point
p233
(dp234
g29
(iimageInfo
Point2d
p235
(dp236
g32
F222.94
sg33
F1904.14
sbsg34
(iimageInfo
Point2d
p237
(dp238
g32
F0.71
sg33
F0.69
sbsg37
(iimageInfo
Point2d
p239
(dp240
g32
I0
sg33
I4751
sbsg40
(iimageInfo
Point3d
p241
(dp242
g32
I0
sg33
I0
sg43
I0
sbsbsg44
(iimageInfo
Point
p243
(dp244
g29
(iimageInfo
Point2d
p245
(dp246
g32
F766.0
sg33
F1043.28
sbsg34
(iimageInfo
Point2d
p247
(dp248
g32
F0.0
sg33
F0.38
sbsg37
(iimageInfo
Point2d
p249
(dp250
g32
I3167
sg33
I0
sbsg40
(iimageInfo
Point3d
p251
(dp252
g32
I0
sg33
I0
sg43
I0
sbsbsg55
I0
sg56
I0
sg57
(iimageInfo
Point
p253
(dp254
g29
(iimageInfo
Point2d
p255
(dp256
g32
F766.0
sg33
F1904.14
sbsg34
(iimageInfo
Point2d
p257
(dp258
g32
F0.0
sg33
F0.69
sbsg37
(iimageInfo
Point2d
p259
(dp260
g32
I3167
sg33
I4751
sbsg40
(iimageInfo
Point3d
p261
(dp262
g32
I0
sg33
I0
sg43
I0
sbsbsg68
I3168
sg69
I4752
sg70
I3
sg71
(iimageInfo
Point
p263
(dp264
g29
(iimageInfo
Point2d
p265
(dp266
g32
F509.96
sg33
F1473.8
sbsg34
(iimageInfo
Point2d
p267
(dp268
g32
F0.33999999999999997
sg33
F0.54
sbsg37
(iimageInfo
Point2d
p269
(dp270
g32
I1584
sg33
I2376
sbsg40
(iimageInfo
Point3d
p271
(dp272
g32
I0
sg33
I0
sg43
I0
sbsbsg82
S'IMG_6884.JPG'
p273
sg84
(iimageInfo
Point
p274
(dp275
g29
(iimageInfo
Point2d
p276
(dp277
g32
F222.94
sg33
F1043.28
sbsg34
(iimageInfo
Point2d
p278
(dp279
g32
F0.71
sg33
F0.38
sbsg37
(iimageInfo
Point2d
p280
(dp281
g32
I0
sg33
I0
sbsg40
(iimageInfo
Point3d
p282
(dp283
g32
I0
sg33
I0
sg43
I0
sbsbsba(iimageInfo
ImageInfo
p284
(dp285
g9
(iimageInfo
NeighborImages
p286
(dp287
g12
(iimageInfo
NeighborPoint
p288
(dp289
g15
F1000000.0
sg16
I-1
sbsg17
(iimageInfo
NeighborPoint
p290
(dp291
g15
F1000000.0
sg16
I-1
sbsg20
(iimageInfo
NeighborPoint
p292
(dp293
g15
F1000000.0
sg16
I-1
sbsg23
(iimageInfo
NeighborPoint
p294
(dp295
g15
F1000000.0
sg16
I-1
sbsbsg26
(iimageInfo
Point
p296
(dp297
g29
(iimageInfo
Point2d
p298
(dp299
g32
F183.58
sg33
F2201.1
sbsg34
(iimageInfo
Point2d
p300
(dp301
g32
F0.76
sg33
F0.8
sbsg37
(iimageInfo
Point2d
p302
(dp303
g32
I0
sg33
I4751
sbsg40
(iimageInfo
Point3d
p304
(dp305
g32
I0
sg33
I0
sg43
I0
sbsbsg44
(iimageInfo
Point
p306
(dp307
g29
(iimageInfo
Point2d
p308
(dp309
g32
F757.43
sg33
F1340.25
sbsg34
(iimageInfo
Point2d
p310
(dp311
g32
F0.010000000000000009
sg33
F0.49
sbsg37
(iimageInfo
Point2d
p312
(dp313
g32
I3167
sg33
I0
sbsg40
(iimageInfo
Point3d
p314
(dp315
g32
I0
sg33
I0
sg43
I0
sbsbsg55
I0
sg56
I0
sg57
(iimageInfo
Point
p316
(dp317
g29
(iimageInfo
Point2d
p318
(dp319
g32
F757.43
sg33
F2201.1
sbsg34
(iimageInfo
Point2d
p320
(dp321
g32
F0.010000000000000009
sg33
F0.8
sbsg37
(iimageInfo
Point2d
p322
(dp323
g32
I3167
sg33
I4751
sbsg40
(iimageInfo
Point3d
p324
(dp325
g32
I0
sg33
I0
sg43
I0
sbsbsg68
I3168
sg69
I4752
sg70
I4
sg71
(iimageInfo
Point
p326
(dp327
g29
(iimageInfo
Point2d
p328
(dp329
g32
F470.6
sg33
F1770.77
sbsg34
(iimageInfo
Point2d
p330
(dp331
g32
F0.39
sg33
F0.64
sbsg37
(iimageInfo
Point2d
p332
(dp333
g32
I1584
sg33
I2376
sbsg40
(iimageInfo
Point3d
p334
(dp335
g32
I0
sg33
I0
sg43
I0
sbsbsg82
S'IMG_6885.JPG'
p336
sg84
(iimageInfo
Point
p337
(dp338
g29
(iimageInfo
Point2d
p339
(dp340
g32
F183.58
sg33
F1340.25
sbsg34
(iimageInfo
Point2d
p341
(dp342
g32
F0.76
sg33
F0.49
sbsg37
(iimageInfo
Point2d
p343
(dp344
g32
I0
sg33
I0
sbsg40
(iimageInfo
Point3d
p345
(dp346
g32
I0
sg33
I0
sg43
I0
sbsbsba(iimageInfo
ImageInfo
p347
(dp348
g9
(iimageInfo
NeighborImages
p349
(dp350
g12
(iimageInfo
NeighborPoint
p351
(dp352
g15
F1000000.0
sg16
I-1
sbsg17
(iimageInfo
NeighborPoint
p353
(dp354
g15
F1000000.0
sg16
I-1
sbsg20
(iimageInfo
NeighborPoint
p355
(dp356
g15
F1000000.0
sg16
I-1
sbsg23
(iimageInfo
NeighborPoint
p357
(dp358
g15
F1000000.0
sg16
I-1
sbsbsg26
(iimageInfo
Point
p359
(dp360
g29
(iimageInfo
Point2d
p361
(dp362
g32
F167.95
sg33
F2577.79
sbsg34
(iimageInfo
Point2d
p363
(dp364
g32
F0.78
sg33
F0.94
sbsg37
(iimageInfo
Point2d
p365
(dp366
g32
I0
sg33
I4751
sbsg40
(iimageInfo
Point3d
p367
(dp368
g32
I0
sg33
I0
sg43
I0
sbsbsg44
(iimageInfo
Point
p369
(dp370
g29
(iimageInfo
Point2d
p371
(dp372
g32
F741.8
sg33
F1716.93
sbsg34
(iimageInfo
Point2d
p373
(dp374
g32
F0.030000000000000027
sg33
F0.62
sbsg37
(iimageInfo
Point2d
p375
(dp376
g32
I3167
sg33
I0
sbsg40
(iimageInfo
Point3d
p377
(dp378
g32
I0
sg33
I0
sg43
I0
sbsbsg55
I0
sg56
I0
sg57
(iimageInfo
Point
p379
(dp380
g29
(iimageInfo
Point2d
p381
(dp382
g32
F741.8
sg33
F2577.79
sbsg34
(iimageInfo
Point2d
p383
(dp384
g32
F0.030000000000000027
sg33
F0.94
sbsg37
(iimageInfo
Point2d
p385
(dp386
g32
I3167
sg33
I4751
sbsg40
(iimageInfo
Point3d
p387
(dp388
g32
I0
sg33
I0
sg43
I0
sbsbsg68
I3168
sg69
I4752
sg70
I5
sg71
(iimageInfo
Point
p389
(dp390
g29
(iimageInfo
Point2d
p391
(dp392
g32
F454.97
sg33
F2147.45
sbsg34
(iimageInfo
Point2d
p393
(dp394
g32
F0.41000000000000003
sg33
F0.78
sbsg37
(iimageInfo
Point2d
p395
(dp396
g32
I1584
sg33
I2376
sbsg40
(iimageInfo
Point3d
p397
(dp398
g32
I0
sg33
I0
sg43
I0
sbsbsg82
S'IMG_6886.JPG'
p399
sg84
(iimageInfo
Point
p400
(dp401
g29
(iimageInfo
Point2d
p402
(dp403
g32
F167.95
sg33
F1716.93
sbsg34
(iimageInfo
Point2d
p404
(dp405
g32
F0.78
sg33
F0.62
sbsg37
(iimageInfo
Point2d
p406
(dp407
g32
I0
sg33
I0
sbsg40
(iimageInfo
Point3d
p408
(dp409
g32
I0
sg33
I0
sg43
I0
sbsbsba(iimageInfo
ImageInfo
p410
(dp411
g9
(iimageInfo
NeighborImages
p412
(dp413
g12
(iimageInfo
NeighborPoint
p414
(dp415
g15
F1000000.0
sg16
I-1
sbsg17
(iimageInfo
NeighborPoint
p416
(dp417
g15
F1000000.0
sg16
I-1
sbsg20
(iimageInfo
NeighborPoint
p418
(dp419
g15
F1000000.0
sg16
I-1
sbsg23
(iimageInfo
NeighborPoint
p420
(dp421
g15
F1000000.0
sg16
I-1
sbsbsg26
(iimageInfo
Point
p422
(dp423
g29
(iimageInfo
Point2d
p424
(dp425
g32
F160.39
sg33
F2747.0
sbsg34
(iimageInfo
Point2d
p426
(dp427
g32
F0.79
sg33
F1.0
sbsg37
(iimageInfo
Point2d
p428
(dp429
g32
I0
sg33
I4751
sbsg40
(iimageInfo
Point3d
p430
(dp431
g32
I0
sg33
I0
sg43
I0
sbsbsg44
(iimageInfo
Point
p432
(dp433
g29
(iimageInfo
Point2d
p434
(dp435
g32
F734.23
sg33
F2004.78
sbsg34
(iimageInfo
Point2d
p436
(dp437
g32
F0.040000000000000036
sg33
F0.73
sbsg37
(iimageInfo
Point2d
p438
(dp439
g32
I3167
sg33
I0
sbsg40
(iimageInfo
Point3d
p440
(dp441
g32
I0
sg33
I0
sg43
I0
sbsbsg55
I0
sg56
I0
sg57
(iimageInfo
Point
p442
(dp443
g29
(iimageInfo
Point2d
p444
(dp445
g32
F734.23
sg33
F2747.0
sbsg34
(iimageInfo
Point2d
p446
(dp447
g32
F0.040000000000000036
sg33
F1.0
sbsg37
(iimageInfo
Point2d
p448
(dp449
g32
I3167
sg33
I4751
sbsg40
(iimageInfo
Point3d
p450
(dp451
g32
I0
sg33
I0
sg43
I0
sbsbsg68
I3168
sg69
I4752
sg70
I6
sg71
(iimageInfo
Point
p452
(dp453
g29
(iimageInfo
Point2d
p454
(dp455
g32
F447.4
sg33
F2435.3
sbsg34
(iimageInfo
Point2d
p456
(dp457
g32
F0.42000000000000004
sg33
F0.89
sbsg37
(iimageInfo
Point2d
p458
(dp459
g32
I1584
sg33
I2376
sbsg40
(iimageInfo
Point3d
p460
(dp461
g32
I0
sg33
I0
sg43
I0
sbsbsg82
S'IMG_6887.JPG'
p462
sg84
(iimageInfo
Point
p463
(dp464
g29
(iimageInfo
Point2d
p465
(dp466
g32
F160.39
sg33
F2004.78
sbsg34
(iimageInfo
Point2d
p467
(dp468
g32
F0.79
sg33
F0.73
sbsg37
(iimageInfo
Point2d
p469
(dp470
g32
I0
sg33
I0
sbsg40
(iimageInfo
Point3d
p471
(dp472
g32
I0
sg33
I0
sg43
I0
sbsbsba(iimageInfo
ImageInfo
p473
(dp474
g9
(iimageInfo
NeighborImages
p475
(dp476
g12
(iimageInfo
NeighborPoint
p477
(dp478
g15
F1000000.0
sg16
I-1
sbsg17
(iimageInfo
NeighborPoint
p479
(dp480
g15
F1000000.0
sg16
I-1
sbsg20
(iimageInfo
NeighborPoint
p481
(dp482
g15
F1000000.0
sg16
I-1
sbsg23
(iimageInfo
NeighborPoint
p483
(dp484
g15
F1000000.0
sg16
I-1
sbsbsg26
(iimageInfo
Point
p485
(dp486
g29
(iimageInfo
Point2d
p487
(dp488
g32
F12.12
sg33
F2747.0
sbsg34
(iimageInfo
Point2d
p489
(dp490
g32
F0.98
sg33
F1.0
sbsg37
(iimageInfo
Point2d
p491
(dp492
g32
I0
sg33
I4751
sbsg40
(iimageInfo
Point3d
p493
(dp494
g32
I0
sg33
I0
sg43
I0
sbsbsg44
(iimageInfo
Point
p495
(dp496
g29
(iimageInfo
Point2d
p497
(dp498
g32
F585.96
sg33
F1916.77
sbsg34
(iimageInfo
Point2d
p499
(dp500
g32
F0.24
sg33
F0.7
sbsg37
(iimageInfo
Point2d
p501
(dp502
g32
I3167
sg33
I0
sbsg40
(iimageInfo
Point3d
p503
(dp504
g32
I0
sg33
I0
sg43
I0
sbsbsg55
I0
sg56
I0
sg57
(iimageInfo
Point
p505
(dp506
g29
(iimageInfo
Point2d
p507
(dp508
g32
F585.96
sg33
F2747.0
sbsg34
(iimageInfo
Point2d
p509
(dp510
g32
F0.24
sg33
F1.0
sbsg37
(iimageInfo
Point2d
p511
(dp512
g32
I3167
sg33
I4751
sbsg40
(iimageInfo
Point3d
p513
(dp514
g32
I0
sg33
I0
sg43
I0
sbsbsg68
I3168
sg69
I4752
sg70
I7
sg71
(iimageInfo
Point
p515
(dp516
g29
(iimageInfo
Point2d
p517
(dp518
g32
F299.13
sg33
F2347.29
sbsg34
(iimageInfo
Point2d
p519
(dp520
g32
F0.61
sg33
F0.85
sbsg37
(iimageInfo
Point2d
p521
(dp522
g32
I1584
sg33
I2376
sbsg40
(iimageInfo
Point3d
p523
(dp524
g32
I0
sg33
I0
sg43
I0
sbsbsg82
S'IMG_6888.JPG'
p525
sg84
(iimageInfo
Point
p526
(dp527
g29
(iimageInfo
Point2d
p528
(dp529
g32
F12.12
sg33
F1916.77
sbsg34
(iimageInfo
Point2d
p530
(dp531
g32
F0.98
sg33
F0.7
sbsg37
(iimageInfo
Point2d
p532
(dp533
g32
I0
sg33
I0
sbsg40
(iimageInfo
Point3d
p534
(dp535
g32
I0
sg33
I0
sg43
I0
sbsbsba(iimageInfo
ImageInfo
p536
(dp537
g9
(iimageInfo
NeighborImages
p538
(dp539
g12
(iimageInfo
NeighborPoint
p540
(dp541
g15
F1000000.0
sg16
I-1
sbsg17
(iimageInfo
NeighborPoint
p542
(dp543
g15
F1000000.0
sg16
I-1
sbsg20
(iimageInfo
NeighborPoint
p544
(dp545
g15
F1000000.0
sg16
I-1
sbsg23
(iimageInfo
NeighborPoint
p546
(dp547
g15
F1000000.0
sg16
I-1
sbsbsg26
(iimageInfo
Point
p548
(dp549
g29
(iimageInfo
Point2d
p550
(dp551
g32
F20.37
sg33
F2485.36
sbsg34
(iimageInfo
Point2d
p552
(dp553
g32
F0.97
sg33
F0.9
sbsg37
(iimageInfo
Point2d
p554
(dp555
g32
I0
sg33
I4751
sbsg40
(iimageInfo
Point3d
p556
(dp557
g32
I0
sg33
I0
sg43
I0
sbsbsg44
(iimageInfo
Point
p558
(dp559
g29
(iimageInfo
Point2d
p560
(dp561
g32
F594.21
sg33
F1624.51
sbsg34
(iimageInfo
Point2d
p562
(dp563
g32
F0.22999999999999998
sg33
F0.59
sbsg37
(iimageInfo
Point2d
p564
(dp565
g32
I3167
sg33
I0
sbsg40
(iimageInfo
Point3d
p566
(dp567
g32
I0
sg33
I0
sg43
I0
sbsbsg55
I0
sg56
I0
sg57
(iimageInfo
Point
p568
(dp569
g29
(iimageInfo
Point2d
p570
(dp571
g32
F594.21
sg33
F2485.36
sbsg34
(iimageInfo
Point2d
p572
(dp573
g32
F0.22999999999999998
sg33
F0.9
sbsg37
(iimageInfo
Point2d
p574
(dp575
g32
I3167
sg33
I4751
sbsg40
(iimageInfo
Point3d
p576
(dp577
g32
I0
sg33
I0
sg43
I0
sbsbsg68
I3168
sg69
I4752
sg70
I8
sg71
(iimageInfo
Point
p578
(dp579
g29
(iimageInfo
Point2d
p580
(dp581
g32
F307.38
sg33
F2055.03
sbsg34
(iimageInfo
Point2d
p582
(dp583
g32
F0.6
sg33
F0.75
sbsg37
(iimageInfo
Point2d
p584
(dp585
g32
I1584
sg33
I2376
sbsg40
(iimageInfo
Point3d
p586
(dp587
g32
I0
sg33
I0
sg43
I0
sbsbsg82
S'IMG_6889.JPG'
p588
sg84
(iimageInfo
Point
p589
(dp590
g29
(iimageInfo
Point2d
p591
(dp592
g32
F20.37
sg33
F1624.51
sbsg34
(iimageInfo
Point2d
p593
(dp594
g32
F0.97
sg33
F0.59
sbsg37
(iimageInfo
Point2d
p595
(dp596
g32
I0
sg33
I0
sbsg40
(iimageInfo
Point3d
p597
(dp598
g32
I0
sg33
I0
sg43
I0
sbsbsba(iimageInfo
ImageInfo
p599
(dp600
g9
(iimageInfo
NeighborImages
p601
(dp602
g12
(iimageInfo
NeighborPoint
p603
(dp604
g15
F1000000.0
sg16
I-1
sbsg17
(iimageInfo
NeighborPoint
p605
(dp606
g15
F1000000.0
sg16
I-1
sbsg20
(iimageInfo
NeighborPoint
p607
(dp608
g15
F1000000.0
sg16
I-1
sbsg23
(iimageInfo
NeighborPoint
p609
(dp610
g15
F1000000.0
sg16
I-1
sbsbsg26
(iimageInfo
Point
p611
(dp612
g29
(iimageInfo
Point2d
p613
(dp614
g32
F80.45
sg33
F2184.91
sbsg34
(iimageInfo
Point2d
p615
(dp616
g32
F0.9
sg33
F0.8
sbsg37
(iimageInfo
Point2d
p617
(dp618
g32
I0
sg33
I4751
sbsg40
(iimageInfo
Point3d
p619
(dp620
g32
I0
sg33
I0
sg43
I0
sbsbsg44
(iimageInfo
Point
p621
(dp622
g29
(iimageInfo
Point2d
p623
(dp624
g32
F654.29
sg33
F1324.05
sbsg34
(iimageInfo
Point2d
p625
(dp626
g32
F0.15000000000000002
sg33
F0.48
sbsg37
(iimageInfo
Point2d
p627
(dp628
g32
I3167
sg33
I0
sbsg40
(iimageInfo
Point3d
p629
(dp630
g32
I0
sg33
I0
sg43
I0
sbsbsg55
I0
sg56
I0
sg57
(iimageInfo
Point
p631
(dp632
g29
(iimageInfo
Point2d
p633
(dp634
g32
F654.29
sg33
F2184.91
sbsg34
(iimageInfo
Point2d
p635
(dp636
g32
F0.15000000000000002
sg33
F0.8
sbsg37
(iimageInfo
Point2d
p637
(dp638
g32
I3167
sg33
I4751
sbsg40
(iimageInfo
Point3d
p639
(dp640
g32
I0
sg33
I0
sg43
I0
sbsbsg68
I3168
sg69
I4752
sg70
I9
sg71
(iimageInfo
Point
p641
(dp642
g29
(iimageInfo
Point2d
p643
(dp644
g32
F367.46
sg33
F1754.57
sbsg34
(iimageInfo
Point2d
p645
(dp646
g32
F0.52
sg33
F0.64
sbsg37
(iimageInfo
Point2d
p647
(dp648
g32
I1584
sg33
I2376
sbsg40
(iimageInfo
Point3d
p649
(dp650
g32
I0
sg33
I0
sg43
I0
sbsbsg82
S'IMG_6890.JPG'
p651
sg84
(iimageInfo
Point
p652
(dp653
g29
(iimageInfo
Point2d
p654
(dp655
g32
F80.45
sg33
F1324.05
sbsg34
(iimageInfo
Point2d
p656
(dp657
g32
F0.9
sg33
F0.48
sbsg37
(iimageInfo
Point2d
p658
(dp659
g32
I0
sg33
I0
sbsg40
(iimageInfo
Point3d
p660
(dp661
g32
I0
sg33
I0
sg43
I0
sbsbsba(iimageInfo
ImageInfo
p662
(dp663
g9
(iimageInfo
NeighborImages
p664
(dp665
g12
(iimageInfo
NeighborPoint
p666
(dp667
g15
F1000000.0
sg16
I-1
sbsg17
(iimageInfo
NeighborPoint
p668
(dp669
g15
F1000000.0
sg16
I-1
sbsg20
(iimageInfo
NeighborPoint
p670
(dp671
g15
F1000000.0
sg16
I-1
sbsg23
(iimageInfo
NeighborPoint
p672
(dp673
g15
F1000000.0
sg16
I-1
sbsbsg26
(iimageInfo
Point
p674
(dp675
g29
(iimageInfo
Point2d
p676
(dp677
g32
F79.15
sg33
F1765.08
sbsg34
(iimageInfo
Point2d
p678
(dp679
g32
F0.9
sg33
F0.64
sbsg37
(iimageInfo
Point2d
p680
(dp681
g32
I0
sg33
I4751
sbsg40
(iimageInfo
Point3d
p682
(dp683
g32
I0
sg33
I0
sg43
I0
sbsbsg44
(iimageInfo
Point
p684
(dp685
g29
(iimageInfo
Point2d
p686
(dp687
g32
F652.99
sg33
F904.23
sbsg34
(iimageInfo
Point2d
p688
(dp689
g32
F0.15000000000000002
sg33
F0.33
sbsg37
(iimageInfo
Point2d
p690
(dp691
g32
I3167
sg33
I0
sbsg40
(iimageInfo
Point3d
p692
(dp693
g32
I0
sg33
I0
sg43
I0
sbsbsg55
I0
sg56
I0
sg57
(iimageInfo
Point
p694
(dp695
g29
(iimageInfo
Point2d
p696
(dp697
g32
F652.99
sg33
F1765.08
sbsg34
(iimageInfo
Point2d
p698
(dp699
g32
F0.15000000000000002
sg33
F0.64
sbsg37
(iimageInfo
Point2d
p700
(dp701
g32
I3167
sg33
I4751
sbsg40
(iimageInfo
Point3d
p702
(dp703
g32
I0
sg33
I0
sg43
I0
sbsbsg68
I3168
sg69
I4752
sg70
I10
sg71
(iimageInfo
Point
p704
(dp705
g29
(iimageInfo
Point2d
p706
(dp707
g32
F366.16
sg33
F1334.74
sbsg34
(iimageInfo
Point2d
p708
(dp709
g32
F0.52
sg33
F0.49
sbsg37
(iimageInfo
Point2d
p710
(dp711
g32
I1584
sg33
I2376
sbsg40
(iimageInfo
Point3d
p712
(dp713
g32
I0
sg33
I0
sg43
I0
sbsbsg82
S'IMG_6891.JPG'
p714
sg84
(iimageInfo
Point
p715
(dp716
g29
(iimageInfo
Point2d
p717
(dp718
g32
F79.15
sg33
F904.23
sbsg34
(iimageInfo
Point2d
p719
(dp720
g32
F0.9
sg33
F0.33
sbsg37
(iimageInfo
Point2d
p721
(dp722
g32
I0
sg33
I0
sbsg40
(iimageInfo
Point3d
p723
(dp724
g32
I0
sg33
I0
sg43
I0
sbsbsba(iimageInfo
ImageInfo
p725
(dp726
g9
(iimageInfo
NeighborImages
p727
(dp728
g12
(iimageInfo
NeighborPoint
p729
(dp730
g15
F1000000.0
sg16
I-1
sbsg17
(iimageInfo
NeighborPoint
p731
(dp732
g15
F1000000.0
sg16
I-1
sbsg20
(iimageInfo
NeighborPoint
p733
(dp734
g15
F1000000.0
sg16
I-1
sbsg23
(iimageInfo
NeighborPoint
p735
(dp736
g15
F1000000.0
sg16
I-1
sbsbsg26
(iimageInfo
Point
p737
(dp738
g29
(iimageInfo
Point2d
p739
(dp740
g32
F120.9
sg33
F1171.53
sbsg34
(iimageInfo
Point2d
p741
(dp742
g32
F0.84
sg33
F0.43
sbsg37
(iimageInfo
Point2d
p743
(dp744
g32
I0
sg33
I4751
sbsg40
(iimageInfo
Point3d
p745
(dp746
g32
I0
sg33
I0
sg43
I0
sbsbsg44
(iimageInfo
Point
p747
(dp748
g29
(iimageInfo
Point2d
p749
(dp750
g32
F694.75
sg33
F310.67
sbsg34
(iimageInfo
Point2d
p751
(dp752
g32
F0.08999999999999997
sg33
F0.11
sbsg37
(iimageInfo
Point2d
p753
(dp754
g32
I3167
sg33
I0
sbsg40
(iimageInfo
Point3d
p755
(dp756
g32
I0
sg33
I0
sg43
I0
sbsbsg55
I0
sg56
I0
sg57
(iimageInfo
Point
p757
(dp758
g29
(iimageInfo
Point2d
p759
(dp760
g32
F694.75
sg33
F1171.53
sbsg34
(iimageInfo
Point2d
p761
(dp762
g32
F0.08999999999999997
sg33
F0.43
sbsg37
(iimageInfo
Point2d
p763
(dp764
g32
I3167
sg33
I4751
sbsg40
(iimageInfo
Point3d
p765
(dp766
g32
I0
sg33
I0
sg43
I0
sbsbsg68
I3168
sg69
I4752
sg70
I11
sg71
(iimageInfo
Point
p767
(dp768
g29
(iimageInfo
Point2d
p769
(dp770
g32
F407.91
sg33
F741.19
sbsg34
(iimageInfo
Point2d
p771
(dp772
g32
F0.47
sg33
F0.27
sbsg37
(iimageInfo
Point2d
p773
(dp774
g32
I1584
sg33
I2376
sbsg40
(iimageInfo
Point3d
p775
(dp776
g32
I0
sg33
I0
sg43
I0
sbsbsg82
S'IMG_6892.JPG'
p777
sg84
(iimageInfo
Point
p778
(dp779
g29
(iimageInfo
Point2d
p780
(dp781
g32
F120.9
sg33
F310.67
sbsg34
(iimageInfo
Point2d
p782
(dp783
g32
F0.84
sg33
F0.11
sbsg37
(iimageInfo
Point2d
p784
(dp785
g32
I0
sg33
I0
sbsg40
(iimageInfo
Point3d
p786
(dp787
g32
I0
sg33
I0
sg43
I0
sbsbsba(iimageInfo
ImageInfo
p788
(dp789
g9
(iimageInfo
NeighborImages
p790
(dp791
g12
(iimageInfo
NeighborPoint
p792
(dp793
g15
F1000000.0
sg16
I-1
sbsg17
(iimageInfo
NeighborPoint
p794
(dp795
g15
F1000000.0
sg16
I-1
sbsg20
(iimageInfo
NeighborPoint
p796
(dp797
g15
F1000000.0
sg16
I-1
sbsg23
(iimageInfo
NeighborPoint
p798
(dp799
g15
F1000000.0
sg16
I-1
sbsbsg26
(iimageInfo
Point
p800
(dp801
g29
(iimageInfo
Point2d
p802
(dp803
g32
F121.48
sg33
F834.19
sbsg34
(iimageInfo
Point2d
p804
(dp805
g32
F0.84
sg33
F0.3
sbsg37
(iimageInfo
Point2d
p806
(dp807
g32
I0
sg33
I4751
sbsg40
(iimageInfo
Point3d
p808
(dp809
g32
I0
sg33
I0
sg43
I0
sbsbsg44
(iimageInfo
Point
p810
(dp811
g29
(iimageInfo
Point2d
p812
(dp813
g32
F695.33
sg33
F0.0
sbsg34
(iimageInfo
Point2d
p814
(dp815
g32
F0.08999999999999997
sg33
F0.0
sbsg37
(iimageInfo
Point2d
p816
(dp817
g32
I3167
sg33
I0
sbsg40
(iimageInfo
Point3d
p818
(dp819
g32
I0
sg33
I0
sg43
I0
sbsbsg55
I0
sg56
I0
sg57
(iimageInfo
Point
p820
(dp821
g29
(iimageInfo
Point2d
p822
(dp823
g32
F695.33
sg33
F834.19
sbsg34
(iimageInfo
Point2d
p824
(dp825
g32
F0.08999999999999997
sg33
F0.3
sbsg37
(iimageInfo
Point2d
p826
(dp827
g32
I3167
sg33
I4751
sbsg40
(iimageInfo
Point3d
p828
(dp829
g32
I0
sg33
I0
sg43
I0
sbsbsg68
I3168
sg69
I4752
sg70
I12
sg71
(iimageInfo
Point
p830
(dp831
g29
(iimageInfo
Point2d
p832
(dp833
g32
F408.5
sg33
F403.85
sbsg34
(iimageInfo
Point2d
p834
(dp835
g32
F0.47
sg33
F0.15
sbsg37
(iimageInfo
Point2d
p836
(dp837
g32
I1584
sg33
I2376
sbsg40
(iimageInfo
Point3d
p838
(dp839
g32
I0
sg33
I0
sg43
I0
sbsbsg82
S'IMG_6893.JPG'
p840
sg84
(iimageInfo
Point
p841
(dp842
g29
(iimageInfo
Point2d
p843
(dp844
g32
F121.48
sg33
F0.0
sbsg34
(iimageInfo
Point2d
p845
(dp846
g32
F0.84
sg33
F0.0
sbsg37
(iimageInfo
Point2d
p847
(dp848
g32
I0
sg33
I0
sbsg40
(iimageInfo
Point3d
p849
(dp850
g32
I0
sg33
I0
sg43
I0
sbsbsba(iimageInfo
ImageInfo
p851
(dp852
g9
(iimageInfo
NeighborImages
p853
(dp854
g12
(iimageInfo
NeighborPoint
p855
(dp856
g15
F1000000.0
sg16
I-1
sbsg17
(iimageInfo
NeighborPoint
p857
(dp858
g15
F1000000.0
sg16
I-1
sbsg20
(iimageInfo
NeighborPoint
p859
(dp860
g15
F1000000.0
sg16
I-1
sbsg23
(iimageInfo
NeighborPoint
p861
(dp862
g15
F1000000.0
sg16
I-1
sbsbsg26
(iimageInfo
Point
p863
(dp864
g29
(iimageInfo
Point2d
p865
(dp866
g32
F0.0
sg33
F791.42
sbsg34
(iimageInfo
Point2d
p867
(dp868
g32
F1.0
sg33
F0.29
sbsg37
(iimageInfo
Point2d
p869
(dp870
g32
I0
sg33
I4751
sbsg40
(iimageInfo
Point3d
p871
(dp872
g32
I0
sg33
I0
sg43
I0
sbsbsg44
(iimageInfo
Point
p873
(dp874
g29
(iimageInfo
Point2d
p875
(dp876
g32
F497.36
sg33
F0.0
sbsg34
(iimageInfo
Point2d
p877
(dp878
g32
F0.35
sg33
F0.0
sbsg37
(iimageInfo
Point2d
p879
(dp880
g32
I3167
sg33
I0
sbsg40
(iimageInfo
Point3d
p881
(dp882
g32
I0
sg33
I0
sg43
I0
sbsbsg55
I0
sg56
I0
sg57
(iimageInfo
Point
p883
(dp884
g29
(iimageInfo
Point2d
p885
(dp886
g32
F497.36
sg33
F791.42
sbsg34
(iimageInfo
Point2d
p887
(dp888
g32
F0.35
sg33
F0.29
sbsg37
(iimageInfo
Point2d
p889
(dp890
g32
I3167
sg33
I4751
sbsg40
(iimageInfo
Point3d
p891
(dp892
g32
I0
sg33
I0
sg43
I0
sbsbsg68
I3168
sg69
I4752
sg70
I13
sg71
(iimageInfo
Point
p893
(dp894
g29
(iimageInfo
Point2d
p895
(dp896
g32
F210.53
sg33
F361.08
sbsg34
(iimageInfo
Point2d
p897
(dp898
g32
F0.73
sg33
F0.13
sbsg37
(iimageInfo
Point2d
p899
(dp900
g32
I1584
sg33
I2376
sbsg40
(iimageInfo
Point3d
p901
(dp902
g32
I0
sg33
I0
sg43
I0
sbsbsg82
S'IMG_6894.JPG'
p903
sg84
(iimageInfo
Point
p904
(dp905
g29
(iimageInfo
Point2d
p906
(dp907
g32
F0.0
sg33
F0.0
sbsg34
(iimageInfo
Point2d
p908
(dp909
g32
F1.0
sg33
F0.0
sbsg37
(iimageInfo
Point2d
p910
(dp911
g32
I0
sg33
I0
sbsg40
(iimageInfo
Point3d
p912
(dp913
g32
I0
sg33
I0
sg43
I0
sbsbsba(iimageInfo
ImageInfo
p914
(dp915
g9
(iimageInfo
NeighborImages
p916
(dp917
g12
(iimageInfo
NeighborPoint
p918
(dp919
g15
F1000000.0
sg16
I-1
sbsg17
(iimageInfo
NeighborPoint
p920
(dp921
g15
F1000000.0
sg16
I-1
sbsg20
(iimageInfo
NeighborPoint
p922
(dp923
g15
F1000000.0
sg16
I-1
sbsg23
(iimageInfo
NeighborPoint
p924
(dp925
g15
F1000000.0
sg16
I-1
sbsbsg26
(iimageInfo
Point
p926
(dp927
g29
(iimageInfo
Point2d
p928
(dp929
g32
F0.0
sg33
F1224.97
sbsg34
(iimageInfo
Point2d
p930
(dp931
g32
F1.0
sg33
F0.45
sbsg37
(iimageInfo
Point2d
p932
(dp933
g32
I0
sg33
I4751
sbsg40
(iimageInfo
Point3d
p934
(dp935
g32
I0
sg33
I0
sg43
I0
sbsbsg44
(iimageInfo
Point
p936
(dp937
g29
(iimageInfo
Point2d
p938
(dp939
g32
F499.58
sg33
F364.11
sbsg34
(iimageInfo
Point2d
p940
(dp941
g32
F0.35
sg33
F0.13
sbsg37
(iimageInfo
Point2d
p942
(dp943
g32
I3167
sg33
I0
sbsg40
(iimageInfo
Point3d
p944
(dp945
g32
I0
sg33
I0
sg43
I0
sbsbsg55
I0
sg56
I0
sg57
(iimageInfo
Point
p946
(dp947
g29
(iimageInfo
Point2d
p948
(dp949
g32
F499.58
sg33
F1224.97
sbsg34
(iimageInfo
Point2d
p950
(dp951
g32
F0.35
sg33
F0.45
sbsg37
(iimageInfo
Point2d
p952
(dp953
g32
I3167
sg33
I4751
sbsg40
(iimageInfo
Point3d
p954
(dp955
g32
I0
sg33
I0
sg43
I0
sbsbsg68
I3168
sg69
I4752
sg70
I14
sg71
(iimageInfo
Point
p956
(dp957
g29
(iimageInfo
Point2d
p958
(dp959
g32
F212.74
sg33
F794.63
sbsg34
(iimageInfo
Point2d
p960
(dp961
g32
F0.72
sg33
F0.29
sbsg37
(iimageInfo
Point2d
p962
(dp963
g32
I1584
sg33
I2376
sbsg40
(iimageInfo
Point3d
p964
(dp965
g32
I0
sg33
I0
sg43
I0
sbsbsg82
S'IMG_6895.JPG'
p966
sg84
(iimageInfo
Point
p967
(dp968
g29
(iimageInfo
Point2d
p969
(dp970
g32
F0.0
sg33
F364.11
sbsg34
(iimageInfo
Point2d
p971
(dp972
g32
F1.0
sg33
F0.13
sbsg37
(iimageInfo
Point2d
p973
(dp974
g32
I0
sg33
I0
sbsg40
(iimageInfo
Point3d
p975
(dp976
g32
I0
sg33
I0
sg43
I0
sbsbsba(iimageInfo
ImageInfo
p977
(dp978
g9
(iimageInfo
NeighborImages
p979
(dp980
g12
(iimageInfo
NeighborPoint
p981
(dp982
g15
F1000000.0
sg16
I-1
sbsg17
(iimageInfo
NeighborPoint
p983
(dp984
g15
F1000000.0
sg16
I-1
sbsg20
(iimageInfo
NeighborPoint
p985
(dp986
g15
F1000000.0
sg16
I-1
sbsg23
(iimageInfo
NeighborPoint
p987
(dp988
g15
F1000000.0
sg16
I-1
sbsbsg26
(iimageInfo
Point
p989
(dp990
g29
(iimageInfo
Point2d
p991
(dp992
g32
F0.0
sg33
F1643.25
sbsg34
(iimageInfo
Point2d
p993
(dp994
g32
F1.0
sg33
F0.6
sbsg37
(iimageInfo
Point2d
p995
(dp996
g32
I0
sg33
I4751
sbsg40
(iimageInfo
Point3d
p997
(dp998
g32
I0
sg33
I0
sg43
I0
sbsbsg44
(iimageInfo
Point
p999
(dp1000
g29
(iimageInfo
Point2d
p1001
(dp1002
g32
F492.49
sg33
F782.39
sbsg34
(iimageInfo
Point2d
p1003
(dp1004
g32
F0.36
sg33
F0.28
sbsg37
(iimageInfo
Point2d
p1005
(dp1006
g32
I3167
sg33
I0
sbsg40
(iimageInfo
Point3d
p1007
(dp1008
g32
I0
sg33
I0
sg43
I0
sbsbsg55
I0
sg56
I0
sg57
(iimageInfo
Point
p1009
(dp1010
g29
(iimageInfo
Point2d
p1011
(dp1012
g32
F492.49
sg33
F1643.25
sbsg34
(iimageInfo
Point2d
p1013
(dp1014
g32
F0.36
sg33
F0.6
sbsg37
(iimageInfo
Point2d
p1015
(dp1016
g32
I3167
sg33
I4751
sbsg40
(iimageInfo
Point3d
p1017
(dp1018
g32
I0
sg33
I0
sg43
I0
sbsbsg68
I3168
sg69
I4752
sg70
I15
sg71
(iimageInfo
Point
p1019
(dp1020
g29
(iimageInfo
Point2d
p1021
(dp1022
g32
F205.66
sg33
F1212.91
sbsg34
(iimageInfo
Point2d
p1023
(dp1024
g32
F0.73
sg33
F0.44
sbsg37
(iimageInfo
Point2d
p1025
(dp1026
g32
I1584
sg33
I2376
sbsg40
(iimageInfo
Point3d
p1027
(dp1028
g32
I0
sg33
I0
sg43
I0
sbsbsg82
S'IMG_6896.JPG'
p1029
sg84
(iimageInfo
Point
p1030
(dp1031
g29
(iimageInfo
Point2d
p1032
(dp1033
g32
F0.0
sg33
F782.39
sbsg34
(iimageInfo
Point2d
p1034
(dp1035
g32
F1.0
sg33
F0.28
sbsg37
(iimageInfo
Point2d
p1036
(dp1037
g32
I0
sg33
I0
sbsg40
(iimageInfo
Point3d
p1038
(dp1039
g32
I0
sg33
I0
sg43
I0
sbsbsba(iimageInfo
ImageInfo
p1040
(dp1041
g9
(iimageInfo
NeighborImages
p1042
(dp1043
g12
(iimageInfo
NeighborPoint
p1044
(dp1045
g15
F1000000.0
sg16
I-1
sbsg17
(iimageInfo
NeighborPoint
p1046
(dp1047
g15
F1000000.0
sg16
I-1
sbsg20
(iimageInfo
NeighborPoint
p1048
(dp1049
g15
F1000000.0
sg16
I-1
sbsg23
(iimageInfo
NeighborPoint
p1050
(dp1051
g15
F1000000.0
sg16
I-1
sbsbsg26
(iimageInfo
Point
p1052
(dp1053
g29
(iimageInfo
Point2d
p1054
(dp1055
g32
F0.0
sg33
F1999.4
sbsg34
(iimageInfo
Point2d
p1056
(dp1057
g32
F1.0
sg33
F0.73
sbsg37
(iimageInfo
Point2d
p1058
(dp1059
g32
I0
sg33
I4751
sbsg40
(iimageInfo
Point3d
p1060
(dp1061
g32
I0
sg33
I0
sg43
I0
sbsbsg44
(iimageInfo
Point
p1062
(dp1063
g29
(iimageInfo
Point2d
p1064
(dp1065
g32
F515.02
sg33
F1138.54
sbsg34
(iimageInfo
Point2d
p1066
(dp1067
g32
F0.32999999999999996
sg33
F0.41
sbsg37
(iimageInfo
Point2d
p1068
(dp1069
g32
I3167
sg33
I0
sbsg40
(iimageInfo
Point3d
p1070
(dp1071
g32
I0
sg33
I0
sg43
I0
sbsbsg55
I0
sg56
I0
sg57
(iimageInfo
Point
p1072
(dp1073
g29
(iimageInfo
Point2d
p1074
(dp1075
g32
F515.02
sg33
F1999.4
sbsg34
(iimageInfo
Point2d
p1076
(dp1077
g32
F0.32999999999999996
sg33
F0.73
sbsg37
(iimageInfo
Point2d
p1078
(dp1079
g32
I3167
sg33
I4751
sbsg40
(iimageInfo
Point3d
p1080
(dp1081
g32
I0
sg33
I0
sg43
I0
sbsbsg68
I3168
sg69
I4752
sg70
I16
sg71
(iimageInfo
Point
p1082
(dp1083
g29
(iimageInfo
Point2d
p1084
(dp1085
g32
F228.19
sg33
F1569.06
sbsg34
(iimageInfo
Point2d
p1086
(dp1087
g32
F0.7
sg33
F0.57
sbsg37
(iimageInfo
Point2d
p1088
(dp1089
g32
I1584
sg33
I2376
sbsg40
(iimageInfo
Point3d
p1090
(dp1091
g32
I0
sg33
I0
sg43
I0
sbsbsg82
S'IMG_6897.JPG'
p1092
sg84
(iimageInfo
Point
p1093
(dp1094
g29
(iimageInfo
Point2d
p1095
(dp1096
g32
F0.0
sg33
F1138.54
sbsg34
(iimageInfo
Point2d
p1097
(dp1098
g32
F1.0
sg33
F0.41
sbsg37
(iimageInfo
Point2d
p1099
(dp1100
g32
I0
sg33
I0
sbsg40
(iimageInfo
Point3d
p1101
(dp1102
g32
I0
sg33
I0
sg43
I0
sbsbsba(iimageInfo
ImageInfo
p1103
(dp1104
g9
(iimageInfo
NeighborImages
p1105
(dp1106
g12
(iimageInfo
NeighborPoint
p1107
(dp1108
g15
F1000000.0
sg16
I-1
sbsg17
(iimageInfo
NeighborPoint
p1109
(dp1110
g15
F1000000.0
sg16
I-1
sbsg20
(iimageInfo
NeighborPoint
p1111
(dp1112
g15
F1000000.0
sg16
I-1
sbsg23
(iimageInfo
NeighborPoint
p1113
(dp1114
g15
F1000000.0
sg16
I-1
sbsbsg26
(iimageInfo
Point
p1115
(dp1116
g29
(iimageInfo
Point2d
p1117
(dp1118
g32
F0.0
sg33
F2364.24
sbsg34
(iimageInfo
Point2d
p1119
(dp1120
g32
F1.0
sg33
F0.86
sbsg37
(iimageInfo
Point2d
p1121
(dp1122
g32
I0
sg33
I4751
sbsg40
(iimageInfo
Point3d
p1123
(dp1124
g32
I0
sg33
I0
sg43
I0
sbsbsg44
(iimageInfo
Point
p1125
(dp1126
g29
(iimageInfo
Point2d
p1127
(dp1128
g32
F514.82
sg33
F1503.38
sbsg34
(iimageInfo
Point2d
p1129
(dp1130
g32
F0.32999999999999996
sg33
F0.55
sbsg37
(iimageInfo
Point2d
p1131
(dp1132
g32
I3167
sg33
I0
sbsg40
(iimageInfo
Point3d
p1133
(dp1134
g32
I0
sg33
I0
sg43
I0
sbsbsg55
I0
sg56
I0
sg57
(iimageInfo
Point
p1135
(dp1136
g29
(iimageInfo
Point2d
p1137
(dp1138
g32
F514.82
sg33
F2364.24
sbsg34
(iimageInfo
Point2d
p1139
(dp1140
g32
F0.32999999999999996
sg33
F0.86
sbsg37
(iimageInfo
Point2d
p1141
(dp1142
g32
I3167
sg33
I4751
sbsg40
(iimageInfo
Point3d
p1143
(dp1144
g32
I0
sg33
I0
sg43
I0
sbsbsg68
I3168
sg69
I4752
sg70
I17
sg71
(iimageInfo
Point
p1145
(dp1146
g29
(iimageInfo
Point2d
p1147
(dp1148
g32
F227.99
sg33
F1933.9
sbsg34
(iimageInfo
Point2d
p1149
(dp1150
g32
F0.7
sg33
F0.7
sbsg37
(iimageInfo
Point2d
p1151
(dp1152
g32
I1584
sg33
I2376
sbsg40
(iimageInfo
Point3d
p1153
(dp1154
g32
I0
sg33
I0
sg43
I0
sbsbsg82
S'IMG_6898.JPG'
p1155
sg84
(iimageInfo
Point
p1156
(dp1157
g29
(iimageInfo
Point2d
p1158
(dp1159
g32
F0.0
sg33
F1503.38
sbsg34
(iimageInfo
Point2d
p1160
(dp1161
g32
F1.0
sg33
F0.55
sbsg37
(iimageInfo
Point2d
p1162
(dp1163
g32
I0
sg33
I0
sbsg40
(iimageInfo
Point3d
p1164
(dp1165
g32
I0
sg33
I0
sg43
I0
sbsbsba(iimageInfo
ImageInfo
p1166
(dp1167
g9
(iimageInfo
NeighborImages
p1168
(dp1169
g12
(iimageInfo
NeighborPoint
p1170
(dp1171
g15
F1000000.0
sg16
I-1
sbsg17
(iimageInfo
NeighborPoint
p1172
(dp1173
g15
F1000000.0
sg16
I-1
sbsg20
(iimageInfo
NeighborPoint
p1174
(dp1175
g15
F1000000.0
sg16
I-1
sbsg23
(iimageInfo
NeighborPoint
p1176
(dp1177
g15
F1000000.0
sg16
I-1
sbsbsg26
(iimageInfo
Point
p1178
(dp1179
g29
(iimageInfo
Point2d
p1180
(dp1181
g32
F0.0
sg33
F2729.74
sbsg34
(iimageInfo
Point2d
p1182
(dp1183
g32
F1.0
sg33
F0.99
sbsg37
(iimageInfo
Point2d
p1184
(dp1185
g32
I0
sg33
I4751
sbsg40
(iimageInfo
Point3d
p1186
(dp1187
g32
I0
sg33
I0
sg43
I0
sbsbsg44
(iimageInfo
Point
p1188
(dp1189
g29
(iimageInfo
Point2d
p1190
(dp1191
g32
F508.72
sg33
F1868.88
sbsg34
(iimageInfo
Point2d
p1192
(dp1193
g32
F0.33999999999999997
sg33
F0.68
sbsg37
(iimageInfo
Point2d
p1194
(dp1195
g32
I3167
sg33
I0
sbsg40
(iimageInfo
Point3d
p1196
(dp1197
g32
I0
sg33
I0
sg43
I0
sbsbsg55
I0
sg56
I0
sg57
(iimageInfo
Point
p1198
(dp1199
g29
(iimageInfo
Point2d
p1200
(dp1201
g32
F508.72
sg33
F2729.74
sbsg34
(iimageInfo
Point2d
p1202
(dp1203
g32
F0.33999999999999997
sg33
F0.99
sbsg37
(iimageInfo
Point2d
p1204
(dp1205
g32
I3167
sg33
I4751
sbsg40
(iimageInfo
Point3d
p1206
(dp1207
g32
I0
sg33
I0
sg43
I0
sbsbsg68
I3168
sg69
I4752
sg70
I18
sg71
(iimageInfo
Point
p1208
(dp1209
g29
(iimageInfo
Point2d
p1210
(dp1211
g32
F221.89
sg33
F2299.4
sbsg34
(iimageInfo
Point2d
p1212
(dp1213
g32
F0.71
sg33
F0.84
sbsg37
(iimageInfo
Point2d
p1214
(dp1215
g32
I1584
sg33
I2376
sbsg40
(iimageInfo
Point3d
p1216
(dp1217
g32
I0
sg33
I0
sg43
I0
sbsbsg82
S'IMG_6899.JPG'
p1218
sg84
(iimageInfo
Point
p1219
(dp1220
g29
(iimageInfo
Point2d
p1221
(dp1222
g32
F0.0
sg33
F1868.88
sbsg34
(iimageInfo
Point2d
p1223
(dp1224
g32
F1.0
sg33
F0.68
sbsg37
(iimageInfo
Point2d
p1225
(dp1226
g32
I0
sg33
I0
sbsg40
(iimageInfo
Point3d
p1227
(dp1228
g32
I0
sg33
I0
sg43
I0
sbsbsbasS'overviewImageInfo'
p1229
(iimageInfo
ImageInfo
p1230
(dp1231
g9
(iimageInfo
NeighborImages
p1232
(dp1233
g12
(iimageInfo
NeighborPoint
p1234
(dp1235
g15
F1000000.0
sg16
I-1
sbsg17
(iimageInfo
NeighborPoint
p1236
(dp1237
g15
F1000000.0
sg16
I-1
sbsg20
(iimageInfo
NeighborPoint
p1238
(dp1239
g15
F1000000.0
sg16
I-1
sbsg23
(iimageInfo
NeighborPoint
p1240
(dp1241
g15
F1000000.0
sg16
I-1
sbsbsg26
(iimageInfo
Point
p1242
(dp1243
g29
(iimageInfo
Point2d
p1244
(dp1245
g32
I0
sg33
I0
sbsg34
(iimageInfo
Point2d
p1246
(dp1247
g32
I0
sg33
I0
sbsg37
(iimageInfo
Point2d
p1248
(dp1249
g32
I0
sg33
I2747
sbsg40
(iimageInfo
Point3d
p1250
(dp1251
g32
I0
sg33
I0
sg43
I0
sbsbsg44
(iimageInfo
Point
p1252
(dp1253
g29
(iimageInfo
Point2d
p1254
(dp1255
g32
I0
sg33
I0
sbsg34
(iimageInfo
Point2d
p1256
(dp1257
g32
I0
sg33
I0
sbsg37
(iimageInfo
Point2d
p1258
(dp1259
g32
I766
sg33
I0
sbsg40
(iimageInfo
Point3d
p1260
(dp1261
g32
I0
sg33
I0
sg43
I0
sbsbsg55
I0
sg56
I0
sg57
(iimageInfo
Point
p1262
(dp1263
g29
(iimageInfo
Point2d
p1264
(dp1265
g32
I0
sg33
I0
sbsg34
(iimageInfo
Point2d
p1266
(dp1267
g32
I0
sg33
I0
sbsg37
(iimageInfo
Point2d
p1268
(dp1269
g32
I766
sg33
I2747
sbsg40
(iimageInfo
Point3d
p1270
(dp1271
g32
I0
sg33
I0
sg43
I0
sbsbsg68
I767
sg69
I2748
sg70
I0
sg71
(iimageInfo
Point
p1272
(dp1273
g29
(iimageInfo
Point2d
p1274
(dp1275
g32
I0
sg33
I0
sbsg34
(iimageInfo
Point2d
p1276
(dp1277
g32
I0
sg33
I0
sbsg37
(iimageInfo
Point2d
p1278
(dp1279
g32
I383
sg33
I1374
sbsg40
(iimageInfo
Point3d
p1280
(dp1281
g32
I0
sg33
I0
sg43
I0
sbsbsg82
S'NA'
p1282
sg84
(iimageInfo
Point
p1283
(dp1284
g29
(iimageInfo
Point2d
p1285
(dp1286
g32
I0
sg33
I0
sbsg34
(iimageInfo
Point2d
p1287
(dp1288
g32
I0
sg33
I0
sbsg37
(iimageInfo
Point2d
p1289
(dp1290
g32
I0
sg33
I0
sbsg40
(iimageInfo
Point3d
p1291
(dp1292
g32
I0
sg33
I0
sg43
I0
sbsbsbsS'faces'
p1293
(lp1294
(iimageInfo
Face
p1295
(dp1296
S'vertices'
p1297
(lp1298
(iimageInfo
Point
p1299
(dp1300
g29
(iimageInfo
Point2d
p1301
(dp1302
g32
I0
sg33
I0
sbsg34
(iimageInfo
Point2d
p1303
(dp1304
g32
I0
sg33
I1
sbsg37
(iimageInfo
Point2d
p1305
(dp1306
g32
I0
sg33
I0
sbsg40
(iimageInfo
Point3d
p1307
(dp1308
g32
F0.0
sg33
F1201.0
sg43
F1199.0
sbsba(iimageInfo
Point
p1309
(dp1310
g29
(iimageInfo
Point2d
p1311
(dp1312
g32
I0
sg33
I0
sbsg34
(iimageInfo
Point2d
p1313
(dp1314
g32
I0
sg33
I0
sbsg37
(iimageInfo
Point2d
p1315
(dp1316
g32
I0
sg33
I0
sbsg40
(iimageInfo
Point3d
p1317
(dp1318
g32
F0.0
sg33
F1201.0
sg43
F101.0
sbsba(iimageInfo
Point
p1319
(dp1320
g29
(iimageInfo
Point2d
p1321
(dp1322
g32
I0
sg33
I0
sbsg34
(iimageInfo
Point2d
p1323
(dp1324
g32
I1
sg33
I0
sbsg37
(iimageInfo
Point2d
p1325
(dp1326
g32
I0
sg33
I0
sbsg40
(iimageInfo
Point3d
p1327
(dp1328
g32
F250.0
sg33
F1201.0
sg43
F101.0
sbsbasba(iimageInfo
Face
p1329
(dp1330
g1297
(lp1331
(iimageInfo
Point
p1332
(dp1333
g29
(iimageInfo
Point2d
p1334
(dp1335
g32
I0
sg33
I0
sbsg34
(iimageInfo
Point2d
p1336
(dp1337
g32
I0
sg33
I1
sbsg37
(iimageInfo
Point2d
p1338
(dp1339
g32
I0
sg33
I0
sbsg40
(iimageInfo
Point3d
p1340
(dp1341
g32
F0.0
sg33
F1201.0
sg43
F1199.0
sbsba(iimageInfo
Point
p1342
(dp1343
g29
(iimageInfo
Point2d
p1344
(dp1345
g32
I0
sg33
I0
sbsg34
(iimageInfo
Point2d
p1346
(dp1347
g32
I1
sg33
I0
sbsg37
(iimageInfo
Point2d
p1348
(dp1349
g32
I0
sg33
I0
sbsg40
(iimageInfo
Point3d
p1350
(dp1351
g32
F250.0
sg33
F1201.0
sg43
F101.0
sbsba(iimageInfo
Point
p1352
(dp1353
g29
(iimageInfo
Point2d
p1354
(dp1355
g32
I0
sg33
I0
sbsg34
(iimageInfo
Point2d
p1356
(dp1357
g32
I1
sg33
I1
sbsg37
(iimageInfo
Point2d
p1358
(dp1359
g32
I0
sg33
I0
sbsg40
(iimageInfo
Point3d
p1360
(dp1361
g32
F250.0
sg33
F1201.0
sg43
F1199.0
sbsbasbasb.