(iimageInfo
WallInfo
p0
(dp1
S'materialIndex'
p2
I8
sS'materialName'
p3
Vroom1/wall1/wall_fused.jpg
p4
sS'imagesInfo'
p5
(lp6
(iimageInfo
ImageInfo
p7
(dp8
S'neighborImages'
p9
(iimageInfo
NeighborImages
p10
(dp11
S'topImage'
p12
(iimageInfo
NeighborPoint
p13
(dp14
S'distance'
p15
F1000000.0
sS'pointIndex'
p16
I-1
sbsS'bottomImage'
p17
(iimageInfo
NeighborPoint
p18
(dp19
g15
F1000000.0
sg16
I-1
sbsS'leftImage'
p20
(iimageInfo
NeighborPoint
p21
(dp22
g15
F1000000.0
sg16
I-1
sbsS'rightImage'
p23
(iimageInfo
NeighborPoint
p24
(dp25
g15
F1000000.0
sg16
I-1
sbsbsS'trPoint'
p26
(iimageInfo
Point
p27
(dp28
S'uvCoords'
p29
(iimageInfo
Point2d
p30
(dp31
S'y'
p32
F1149.17
sS'x'
p33
F2404.0
sbsS'uvCoordsNormalized'
p34
(iimageInfo
Point2d
p35
(dp36
g32
F0.45999999999999996
sg33
F1.0
sbsS'imageCoords'
p37
(iimageInfo
Point2d
p38
(dp39
g32
I0
sg33
I4751
sbsS'worldcoords'
p40
(iimageInfo
Point3d
p41
(dp42
g32
I0
sg33
I0
sS'z'
p43
I0
sbsbsS'blPoint'
p44
(iimageInfo
Point
p45
(dp46
g29
(iimageInfo
Point2d
p47
(dp48
g32
F2129.66
sg33
F948.8
sbsg34
(iimageInfo
Point2d
p49
(dp50
g32
F0.0
sg33
F0.39
sbsg37
(iimageInfo
Point2d
p51
(dp52
g32
I3167
sg33
I0
sbsg40
(iimageInfo
Point3d
p53
(dp54
g32
I0
sg33
I0
sg43
I0
sbsbsS'originY'
p55
I0
sS'originX'
p56
I0
sS'brPoint'
p57
(iimageInfo
Point
p58
(dp59
g29
(iimageInfo
Point2d
p60
(dp61
g32
F2129.66
sg33
F2404.0
sbsg34
(iimageInfo
Point2d
p62
(dp63
g32
F0.0
sg33
F1.0
sbsg37
(iimageInfo
Point2d
p64
(dp65
g32
I3167
sg33
I4751
sbsg40
(iimageInfo
Point3d
p66
(dp67
g32
I0
sg33
I0
sg43
I0
sbsbsS'imageHeight'
p68
I3168
sS'imageWidth'
p69
I4752
sS'imageIndex'
p70
I0
sS'centerPoint'
p71
(iimageInfo
Point
p72
(dp73
g29
(iimageInfo
Point2d
p74
(dp75
g32
F1639.57
sg33
F1684.41
sbsg34
(iimageInfo
Point2d
p76
(dp77
g32
F0.22999999999999998
sg33
F0.7
sbsg37
(iimageInfo
Point2d
p78
(dp79
g32
I1584
sg33
I2376
sbsg40
(iimageInfo
Point3d
p80
(dp81
g32
I0
sg33
I0
sg43
I0
sbsbsS'imageFileName'
p82
S'IMG_6834.JPG'
p83
sS'tlPoint'
p84
(iimageInfo
Point
p85
(dp86
g29
(iimageInfo
Point2d
p87
(dp88
g32
F1149.17
sg33
F948.8
sbsg34
(iimageInfo
Point2d
p89
(dp90
g32
F0.45999999999999996
sg33
F0.39
sbsg37
(iimageInfo
Point2d
p91
(dp92
g32
I0
sg33
I0
sbsg40
(iimageInfo
Point3d
p93
(dp94
g32
I0
sg33
I0
sg43
I0
sbsbsba(iimageInfo
ImageInfo
p95
(dp96
g9
(iimageInfo
NeighborImages
p97
(dp98
g12
(iimageInfo
NeighborPoint
p99
(dp100
g15
F1000000.0
sg16
I-1
sbsg17
(iimageInfo
NeighborPoint
p101
(dp102
g15
F1000000.0
sg16
I-1
sbsg20
(iimageInfo
NeighborPoint
p103
(dp104
g15
F1000000.0
sg16
I-1
sbsg23
(iimageInfo
NeighborPoint
p105
(dp106
g15
F1000000.0
sg16
I-1
sbsbsg26
(iimageInfo
Point
p107
(dp108
g29
(iimageInfo
Point2d
p109
(dp110
g32
F1148.55
sg33
F1826.35
sbsg34
(iimageInfo
Point2d
p111
(dp112
g32
F0.45999999999999996
sg33
F0.76
sbsg37
(iimageInfo
Point2d
p113
(dp114
g32
I0
sg33
I4751
sbsg40
(iimageInfo
Point3d
p115
(dp116
g32
I0
sg33
I0
sg43
I0
sbsbsg44
(iimageInfo
Point
p117
(dp118
g29
(iimageInfo
Point2d
p119
(dp120
g32
F2129.05
sg33
F355.44
sbsg34
(iimageInfo
Point2d
p121
(dp122
g32
F0.0
sg33
F0.15
sbsg37
(iimageInfo
Point2d
p123
(dp124
g32
I3167
sg33
I0
sbsg40
(iimageInfo
Point3d
p125
(dp126
g32
I0
sg33
I0
sg43
I0
sbsbsg55
I0
sg56
I0
sg57
(iimageInfo
Point
p127
(dp128
g29
(iimageInfo
Point2d
p129
(dp130
g32
F2129.05
sg33
F1826.35
sbsg34
(iimageInfo
Point2d
p131
(dp132
g32
F0.0
sg33
F0.76
sbsg37
(iimageInfo
Point2d
p133
(dp134
g32
I3167
sg33
I4751
sbsg40
(iimageInfo
Point3d
p135
(dp136
g32
I0
sg33
I0
sg43
I0
sbsbsg68
I3168
sg69
I4752
sg70
I1
sg71
(iimageInfo
Point
p137
(dp138
g29
(iimageInfo
Point2d
p139
(dp140
g32
F1638.96
sg33
F1091.05
sbsg34
(iimageInfo
Point2d
p141
(dp142
g32
F0.22999999999999998
sg33
F0.45
sbsg37
(iimageInfo
Point2d
p143
(dp144
g32
I1584
sg33
I2376
sbsg40
(iimageInfo
Point3d
p145
(dp146
g32
I0
sg33
I0
sg43
I0
sbsbsg82
S'IMG_6835.JPG'
p147
sg84
(iimageInfo
Point
p148
(dp149
g29
(iimageInfo
Point2d
p150
(dp151
g32
F1148.55
sg33
F355.44
sbsg34
(iimageInfo
Point2d
p152
(dp153
g32
F0.45999999999999996
sg33
F0.15
sbsg37
(iimageInfo
Point2d
p154
(dp155
g32
I0
sg33
I0
sbsg40
(iimageInfo
Point3d
p156
(dp157
g32
I0
sg33
I0
sg43
I0
sbsbsba(iimageInfo
ImageInfo
p158
(dp159
g9
(iimageInfo
NeighborImages
p160
(dp161
g12
(iimageInfo
NeighborPoint
p162
(dp163
g15
F1000000.0
sg16
I-1
sbsg17
(iimageInfo
NeighborPoint
p164
(dp165
g15
F1000000.0
sg16
I-1
sbsg20
(iimageInfo
NeighborPoint
p166
(dp167
g15
F1000000.0
sg16
I-1
sbsg23
(iimageInfo
NeighborPoint
p168
(dp169
g15
F1000000.0
sg16
I-1
sbsbsg26
(iimageInfo
Point
p170
(dp171
g29
(iimageInfo
Point2d
p172
(dp173
g32
F1192.68
sg33
F1395.69
sbsg34
(iimageInfo
Point2d
p174
(dp175
g32
F0.43999999999999995
sg33
F0.58
sbsg37
(iimageInfo
Point2d
p176
(dp177
g32
I0
sg33
I4751
sbsg40
(iimageInfo
Point3d
p178
(dp179
g32
I0
sg33
I0
sg43
I0
sbsbsg44
(iimageInfo
Point
p180
(dp181
g29
(iimageInfo
Point2d
p182
(dp183
g32
F2137.0
sg33
F0.0
sbsg34
(iimageInfo
Point2d
p184
(dp185
g32
F0.0
sg33
F0.0
sbsg37
(iimageInfo
Point2d
p186
(dp187
g32
I3167
sg33
I0
sbsg40
(iimageInfo
Point3d
p188
(dp189
g32
I0
sg33
I0
sg43
I0
sbsbsg55
I0
sg56
I0
sg57
(iimageInfo
Point
p190
(dp191
g29
(iimageInfo
Point2d
p192
(dp193
g32
F2137.0
sg33
F1395.69
sbsg34
(iimageInfo
Point2d
p194
(dp195
g32
F0.0
sg33
F0.58
sbsg37
(iimageInfo
Point2d
p196
(dp197
g32
I3167
sg33
I4751
sbsg40
(iimageInfo
Point3d
p198
(dp199
g32
I0
sg33
I0
sg43
I0
sbsbsg68
I3168
sg69
I4752
sg70
I2
sg71
(iimageInfo
Point
p200
(dp201
g29
(iimageInfo
Point2d
p202
(dp203
g32
F1683.09
sg33
F660.39
sbsg34
(iimageInfo
Point2d
p204
(dp205
g32
F0.20999999999999996
sg33
F0.27
sbsg37
(iimageInfo
Point2d
p206
(dp207
g32
I1584
sg33
I2376
sbsg40
(iimageInfo
Point3d
p208
(dp209
g32
I0
sg33
I0
sg43
I0
sbsbsg82
S'IMG_6836.JPG'
p210
sg84
(iimageInfo
Point
p211
(dp212
g29
(iimageInfo
Point2d
p213
(dp214
g32
F1192.68
sg33
F0.0
sbsg34
(iimageInfo
Point2d
p215
(dp216
g32
F0.43999999999999995
sg33
F0.0
sbsg37
(iimageInfo
Point2d
p217
(dp218
g32
I0
sg33
I0
sbsg40
(iimageInfo
Point3d
p219
(dp220
g32
I0
sg33
I0
sg43
I0
sbsbsba(iimageInfo
ImageInfo
p221
(dp222
g9
(iimageInfo
NeighborImages
p223
(dp224
g12
(iimageInfo
NeighborPoint
p225
(dp226
g15
F1000000.0
sg16
I-1
sbsg17
(iimageInfo
NeighborPoint
p227
(dp228
g15
F1000000.0
sg16
I-1
sbsg20
(iimageInfo
NeighborPoint
p229
(dp230
g15
F1000000.0
sg16
I-1
sbsg23
(iimageInfo
NeighborPoint
p231
(dp232
g15
F1000000.0
sg16
I-1
sbsbsg26
(iimageInfo
Point
p233
(dp234
g29
(iimageInfo
Point2d
p235
(dp236
g32
F756.78
sg33
F1419.55
sbsg34
(iimageInfo
Point2d
p237
(dp238
g32
F0.65
sg33
F0.59
sbsg37
(iimageInfo
Point2d
p239
(dp240
g32
I0
sg33
I4751
sbsg40
(iimageInfo
Point3d
p241
(dp242
g32
I0
sg33
I0
sg43
I0
sbsbsg44
(iimageInfo
Point
p243
(dp244
g29
(iimageInfo
Point2d
p245
(dp246
g32
F1737.27
sg33
F0.0
sbsg34
(iimageInfo
Point2d
p247
(dp248
g32
F0.18999999999999995
sg33
F0.0
sbsg37
(iimageInfo
Point2d
p249
(dp250
g32
I3167
sg33
I0
sbsg40
(iimageInfo
Point3d
p251
(dp252
g32
I0
sg33
I0
sg43
I0
sbsbsg55
I0
sg56
I0
sg57
(iimageInfo
Point
p253
(dp254
g29
(iimageInfo
Point2d
p255
(dp256
g32
F1737.27
sg33
F1419.55
sbsg34
(iimageInfo
Point2d
p257
(dp258
g32
F0.18999999999999995
sg33
F0.59
sbsg37
(iimageInfo
Point2d
p259
(dp260
g32
I3167
sg33
I4751
sbsg40
(iimageInfo
Point3d
p261
(dp262
g32
I0
sg33
I0
sg43
I0
sbsbsg68
I3168
sg69
I4752
sg70
I3
sg71
(iimageInfo
Point
p263
(dp264
g29
(iimageInfo
Point2d
p265
(dp266
g32
F1247.18
sg33
F684.26
sbsg34
(iimageInfo
Point2d
p267
(dp268
g32
F0.42000000000000004
sg33
F0.28
sbsg37
(iimageInfo
Point2d
p269
(dp270
g32
I1584
sg33
I2376
sbsg40
(iimageInfo
Point3d
p271
(dp272
g32
I0
sg33
I0
sg43
I0
sbsbsg82
S'IMG_6837.JPG'
p273
sg84
(iimageInfo
Point
p274
(dp275
g29
(iimageInfo
Point2d
p276
(dp277
g32
F756.78
sg33
F0.0
sbsg34
(iimageInfo
Point2d
p278
(dp279
g32
F0.65
sg33
F0.0
sbsg37
(iimageInfo
Point2d
p280
(dp281
g32
I0
sg33
I0
sbsg40
(iimageInfo
Point3d
p282
(dp283
g32
I0
sg33
I0
sg43
I0
sbsbsba(iimageInfo
ImageInfo
p284
(dp285
g9
(iimageInfo
NeighborImages
p286
(dp287
g12
(iimageInfo
NeighborPoint
p288
(dp289
g15
F1000000.0
sg16
I-1
sbsg17
(iimageInfo
NeighborPoint
p290
(dp291
g15
F1000000.0
sg16
I-1
sbsg20
(iimageInfo
NeighborPoint
p292
(dp293
g15
F1000000.0
sg16
I-1
sbsg23
(iimageInfo
NeighborPoint
p294
(dp295
g15
F1000000.0
sg16
I-1
sbsbsg26
(iimageInfo
Point
p296
(dp297
g29
(iimageInfo
Point2d
p298
(dp299
g32
F760.56
sg33
F2123.32
sbsg34
(iimageInfo
Point2d
p300
(dp301
g32
F0.64
sg33
F0.88
sbsg37
(iimageInfo
Point2d
p302
(dp303
g32
I0
sg33
I4751
sbsg40
(iimageInfo
Point3d
p304
(dp305
g32
I0
sg33
I0
sg43
I0
sbsbsg44
(iimageInfo
Point
p306
(dp307
g29
(iimageInfo
Point2d
p308
(dp309
g32
F1741.06
sg33
F652.42
sbsg34
(iimageInfo
Point2d
p310
(dp311
g32
F0.18999999999999995
sg33
F0.27
sbsg37
(iimageInfo
Point2d
p312
(dp313
g32
I3167
sg33
I0
sbsg40
(iimageInfo
Point3d
p314
(dp315
g32
I0
sg33
I0
sg43
I0
sbsbsg55
I0
sg56
I0
sg57
(iimageInfo
Point
p316
(dp317
g29
(iimageInfo
Point2d
p318
(dp319
g32
F1741.06
sg33
F2123.32
sbsg34
(iimageInfo
Point2d
p320
(dp321
g32
F0.18999999999999995
sg33
F0.88
sbsg37
(iimageInfo
Point2d
p322
(dp323
g32
I3167
sg33
I4751
sbsg40
(iimageInfo
Point3d
p324
(dp325
g32
I0
sg33
I0
sg43
I0
sbsbsg68
I3168
sg69
I4752
sg70
I4
sg71
(iimageInfo
Point
p326
(dp327
g29
(iimageInfo
Point2d
p328
(dp329
g32
F1250.97
sg33
F1388.03
sbsg34
(iimageInfo
Point2d
p330
(dp331
g32
F0.41000000000000003
sg33
F0.58
sbsg37
(iimageInfo
Point2d
p332
(dp333
g32
I1584
sg33
I2376
sbsg40
(iimageInfo
Point3d
p334
(dp335
g32
I0
sg33
I0
sg43
I0
sbsbsg82
S'IMG_6838.JPG'
p336
sg84
(iimageInfo
Point
p337
(dp338
g29
(iimageInfo
Point2d
p339
(dp340
g32
F760.56
sg33
F652.42
sbsg34
(iimageInfo
Point2d
p341
(dp342
g32
F0.64
sg33
F0.27
sbsg37
(iimageInfo
Point2d
p343
(dp344
g32
I0
sg33
I0
sbsg40
(iimageInfo
Point3d
p345
(dp346
g32
I0
sg33
I0
sg43
I0
sbsbsba(iimageInfo
ImageInfo
p347
(dp348
g9
(iimageInfo
NeighborImages
p349
(dp350
g12
(iimageInfo
NeighborPoint
p351
(dp352
g15
F1000000.0
sg16
I-1
sbsg17
(iimageInfo
NeighborPoint
p353
(dp354
g15
F1000000.0
sg16
I-1
sbsg20
(iimageInfo
NeighborPoint
p355
(dp356
g15
F1000000.0
sg16
I-1
sbsg23
(iimageInfo
NeighborPoint
p357
(dp358
g15
F1000000.0
sg16
I-1
sbsbsg26
(iimageInfo
Point
p359
(dp360
g29
(iimageInfo
Point2d
p361
(dp362
g32
F749.87
sg33
F2394.33
sbsg34
(iimageInfo
Point2d
p363
(dp364
g32
F0.65
sg33
F1.0
sbsg37
(iimageInfo
Point2d
p365
(dp366
g32
I0
sg33
I4751
sbsg40
(iimageInfo
Point3d
p367
(dp368
g32
I0
sg33
I0
sg43
I0
sbsbsg44
(iimageInfo
Point
p369
(dp370
g29
(iimageInfo
Point2d
p371
(dp372
g32
F1730.37
sg33
F923.43
sbsg34
(iimageInfo
Point2d
p373
(dp374
g32
F0.18999999999999995
sg33
F0.38
sbsg37
(iimageInfo
Point2d
p375
(dp376
g32
I3167
sg33
I0
sbsg40
(iimageInfo
Point3d
p377
(dp378
g32
I0
sg33
I0
sg43
I0
sbsbsg55
I0
sg56
I0
sg57
(iimageInfo
Point
p379
(dp380
g29
(iimageInfo
Point2d
p381
(dp382
g32
F1730.37
sg33
F2394.33
sbsg34
(iimageInfo
Point2d
p383
(dp384
g32
F0.18999999999999995
sg33
F1.0
sbsg37
(iimageInfo
Point2d
p385
(dp386
g32
I3167
sg33
I4751
sbsg40
(iimageInfo
Point3d
p387
(dp388
g32
I0
sg33
I0
sg43
I0
sbsbsg68
I3168
sg69
I4752
sg70
I5
sg71
(iimageInfo
Point
p389
(dp390
g29
(iimageInfo
Point2d
p391
(dp392
g32
F1240.28
sg33
F1659.04
sbsg34
(iimageInfo
Point2d
p393
(dp394
g32
F0.42000000000000004
sg33
F0.69
sbsg37
(iimageInfo
Point2d
p395
(dp396
g32
I1584
sg33
I2376
sbsg40
(iimageInfo
Point3d
p397
(dp398
g32
I0
sg33
I0
sg43
I0
sbsbsg82
S'IMG_6839.JPG'
p399
sg84
(iimageInfo
Point
p400
(dp401
g29
(iimageInfo
Point2d
p402
(dp403
g32
F749.87
sg33
F923.43
sbsg34
(iimageInfo
Point2d
p404
(dp405
g32
F0.65
sg33
F0.38
sbsg37
(iimageInfo
Point2d
p406
(dp407
g32
I0
sg33
I0
sbsg40
(iimageInfo
Point3d
p408
(dp409
g32
I0
sg33
I0
sg43
I0
sbsbsba(iimageInfo
ImageInfo
p410
(dp411
g9
(iimageInfo
NeighborImages
p412
(dp413
g12
(iimageInfo
NeighborPoint
p414
(dp415
g15
F1000000.0
sg16
I-1
sbsg17
(iimageInfo
NeighborPoint
p416
(dp417
g15
F1000000.0
sg16
I-1
sbsg20
(iimageInfo
NeighborPoint
p418
(dp419
g15
F1000000.0
sg16
I-1
sbsg23
(iimageInfo
NeighborPoint
p420
(dp421
g15
F1000000.0
sg16
I-1
sbsbsg26
(iimageInfo
Point
p422
(dp423
g29
(iimageInfo
Point2d
p424
(dp425
g32
F21.72
sg33
F2404.0
sbsg34
(iimageInfo
Point2d
p426
(dp427
g32
F0.99
sg33
F1.0
sbsg37
(iimageInfo
Point2d
p428
(dp429
g32
I0
sg33
I4751
sbsg40
(iimageInfo
Point3d
p430
(dp431
g32
I0
sg33
I0
sg43
I0
sbsbsg44
(iimageInfo
Point
p432
(dp433
g29
(iimageInfo
Point2d
p434
(dp435
g32
F1030.31
sg33
F976.04
sbsg34
(iimageInfo
Point2d
p436
(dp437
g32
F0.52
sg33
F0.41
sbsg37
(iimageInfo
Point2d
p438
(dp439
g32
I3167
sg33
I0
sbsg40
(iimageInfo
Point3d
p440
(dp441
g32
I0
sg33
I0
sg43
I0
sbsbsg55
I0
sg56
I0
sg57
(iimageInfo
Point
p442
(dp443
g29
(iimageInfo
Point2d
p444
(dp445
g32
F1030.31
sg33
F2394.93
sbsg34
(iimageInfo
Point2d
p446
(dp447
g32
F0.52
sg33
F1.0
sbsg37
(iimageInfo
Point2d
p448
(dp449
g32
I3167
sg33
I4751
sbsg40
(iimageInfo
Point3d
p450
(dp451
g32
I0
sg33
I0
sg43
I0
sbsbsg68
I3168
sg69
I4752
sg70
I6
sg71
(iimageInfo
Point
p452
(dp453
g29
(iimageInfo
Point2d
p454
(dp455
g32
F551.44
sg33
F1685.64
sbsg34
(iimageInfo
Point2d
p456
(dp457
g32
F0.74
sg33
F0.7
sbsg37
(iimageInfo
Point2d
p458
(dp459
g32
I1584
sg33
I2376
sbsg40
(iimageInfo
Point3d
p460
(dp461
g32
I0
sg33
I0
sg43
I0
sbsbsg82
S'IMG_6840.JPG'
p462
sg84
(iimageInfo
Point
p463
(dp464
g29
(iimageInfo
Point2d
p465
(dp466
g32
F21.72
sg33
F901.23
sbsg34
(iimageInfo
Point2d
p467
(dp468
g32
F0.99
sg33
F0.37
sbsg37
(iimageInfo
Point2d
p469
(dp470
g32
I0
sg33
I0
sbsg40
(iimageInfo
Point3d
p471
(dp472
g32
I0
sg33
I0
sg43
I0
sbsbsba(iimageInfo
ImageInfo
p473
(dp474
g9
(iimageInfo
NeighborImages
p475
(dp476
g12
(iimageInfo
NeighborPoint
p477
(dp478
g15
F1000000.0
sg16
I-1
sbsg17
(iimageInfo
NeighborPoint
p479
(dp480
g15
F1000000.0
sg16
I-1
sbsg20
(iimageInfo
NeighborPoint
p481
(dp482
g15
F1000000.0
sg16
I-1
sbsg23
(iimageInfo
NeighborPoint
p483
(dp484
g15
F1000000.0
sg16
I-1
sbsbsg26
(iimageInfo
Point
p485
(dp486
g29
(iimageInfo
Point2d
p487
(dp488
g32
F35.47
sg33
F1790.04
sbsg34
(iimageInfo
Point2d
p489
(dp490
g32
F0.98
sg33
F0.74
sbsg37
(iimageInfo
Point2d
p491
(dp492
g32
I0
sg33
I4751
sbsg40
(iimageInfo
Point3d
p493
(dp494
g32
I0
sg33
I0
sg43
I0
sbsbsg44
(iimageInfo
Point
p495
(dp496
g29
(iimageInfo
Point2d
p497
(dp498
g32
F1047.15
sg33
F293.84
sbsg34
(iimageInfo
Point2d
p499
(dp500
g32
F0.51
sg33
F0.12
sbsg37
(iimageInfo
Point2d
p501
(dp502
g32
I3167
sg33
I0
sbsg40
(iimageInfo
Point3d
p503
(dp504
g32
I0
sg33
I0
sg43
I0
sbsbsg55
I0
sg56
I0
sg57
(iimageInfo
Point
p505
(dp506
g29
(iimageInfo
Point2d
p507
(dp508
g32
F1047.15
sg33
F1711.1
sbsg34
(iimageInfo
Point2d
p509
(dp510
g32
F0.51
sg33
F0.71
sbsg37
(iimageInfo
Point2d
p511
(dp512
g32
I3167
sg33
I4751
sbsg40
(iimageInfo
Point3d
p513
(dp514
g32
I0
sg33
I0
sg43
I0
sbsbsg68
I3168
sg69
I4752
sg70
I7
sg71
(iimageInfo
Point
p515
(dp516
g29
(iimageInfo
Point2d
p517
(dp518
g32
F568.16
sg33
F1002.63
sbsg34
(iimageInfo
Point2d
p519
(dp520
g32
F0.73
sg33
F0.42
sbsg37
(iimageInfo
Point2d
p521
(dp522
g32
I1584
sg33
I2376
sbsg40
(iimageInfo
Point3d
p523
(dp524
g32
I0
sg33
I0
sg43
I0
sbsbsg82
S'IMG_6841.JPG'
p525
sg84
(iimageInfo
Point
p526
(dp527
g29
(iimageInfo
Point2d
p528
(dp529
g32
F35.47
sg33
F214.91
sbsg34
(iimageInfo
Point2d
p530
(dp531
g32
F0.98
sg33
F0.09
sbsg37
(iimageInfo
Point2d
p532
(dp533
g32
I0
sg33
I0
sbsg40
(iimageInfo
Point3d
p534
(dp535
g32
I0
sg33
I0
sg43
I0
sbsbsba(iimageInfo
ImageInfo
p536
(dp537
g9
(iimageInfo
NeighborImages
p538
(dp539
g12
(iimageInfo
NeighborPoint
p540
(dp541
g15
F1000000.0
sg16
I-1
sbsg17
(iimageInfo
NeighborPoint
p542
(dp543
g15
F1000000.0
sg16
I-1
sbsg20
(iimageInfo
NeighborPoint
p544
(dp545
g15
F1000000.0
sg16
I-1
sbsg23
(iimageInfo
NeighborPoint
p546
(dp547
g15
F1000000.0
sg16
I-1
sbsbsg26
(iimageInfo
Point
p548
(dp549
g29
(iimageInfo
Point2d
p550
(dp551
g32
F0.0
sg33
F1534.32
sbsg34
(iimageInfo
Point2d
p552
(dp553
g32
F1.0
sg33
F0.64
sbsg37
(iimageInfo
Point2d
p554
(dp555
g32
I0
sg33
I4751
sbsg40
(iimageInfo
Point3d
p556
(dp557
g32
I0
sg33
I0
sg43
I0
sbsbsg44
(iimageInfo
Point
p558
(dp559
g29
(iimageInfo
Point2d
p560
(dp561
g32
F1005.54
sg33
F28.76
sbsg34
(iimageInfo
Point2d
p562
(dp563
g32
F0.53
sg33
F0.01
sbsg37
(iimageInfo
Point2d
p564
(dp565
g32
I3167
sg33
I0
sbsg40
(iimageInfo
Point3d
p566
(dp567
g32
I0
sg33
I0
sg43
I0
sbsbsg55
I0
sg56
I0
sg57
(iimageInfo
Point
p568
(dp569
g29
(iimageInfo
Point2d
p570
(dp571
g32
F1005.54
sg33
F1441.29
sbsg34
(iimageInfo
Point2d
p572
(dp573
g32
F0.53
sg33
F0.6
sbsg37
(iimageInfo
Point2d
p574
(dp575
g32
I3167
sg33
I4751
sbsg40
(iimageInfo
Point3d
p576
(dp577
g32
I0
sg33
I0
sg43
I0
sbsbsg68
I3168
sg69
I4752
sg70
I8
sg71
(iimageInfo
Point
p578
(dp579
g29
(iimageInfo
Point2d
p580
(dp581
g32
F525.66
sg33
F735.19
sbsg34
(iimageInfo
Point2d
p582
(dp583
g32
F0.75
sg33
F0.31
sbsg37
(iimageInfo
Point2d
p584
(dp585
g32
I1584
sg33
I2376
sbsg40
(iimageInfo
Point3d
p586
(dp587
g32
I0
sg33
I0
sg43
I0
sbsbsg82
S'IMG_6842.JPG'
p588
sg84
(iimageInfo
Point
p589
(dp590
g29
(iimageInfo
Point2d
p591
(dp592
g32
F0.0
sg33
F0.0
sbsg34
(iimageInfo
Point2d
p593
(dp594
g32
F1.0
sg33
F0.0
sbsg37
(iimageInfo
Point2d
p595
(dp596
g32
I0
sg33
I0
sbsg40
(iimageInfo
Point3d
p597
(dp598
g32
I0
sg33
I0
sg43
I0
sbsbsbasS'overviewImageInfo'
p599
(iimageInfo
ImageInfo
p600
(dp601
g9
(iimageInfo
NeighborImages
p602
(dp603
g12
(iimageInfo
NeighborPoint
p604
(dp605
g15
F1000000.0
sg16
I-1
sbsg17
(iimageInfo
NeighborPoint
p606
(dp607
g15
F1000000.0
sg16
I-1
sbsg20
(iimageInfo
NeighborPoint
p608
(dp609
g15
F1000000.0
sg16
I-1
sbsg23
(iimageInfo
NeighborPoint
p610
(dp611
g15
F1000000.0
sg16
I-1
sbsbsg26
(iimageInfo
Point
p612
(dp613
g29
(iimageInfo
Point2d
p614
(dp615
g32
I0
sg33
I0
sbsg34
(iimageInfo
Point2d
p616
(dp617
g32
I0
sg33
I0
sbsg37
(iimageInfo
Point2d
p618
(dp619
g32
I0
sg33
I2404
sbsg40
(iimageInfo
Point3d
p620
(dp621
g32
I0
sg33
I0
sg43
I0
sbsbsg44
(iimageInfo
Point
p622
(dp623
g29
(iimageInfo
Point2d
p624
(dp625
g32
I0
sg33
I0
sbsg34
(iimageInfo
Point2d
p626
(dp627
g32
I0
sg33
I0
sbsg37
(iimageInfo
Point2d
p628
(dp629
g32
I2137
sg33
I0
sbsg40
(iimageInfo
Point3d
p630
(dp631
g32
I0
sg33
I0
sg43
I0
sbsbsg55
I0
sg56
I0
sg57
(iimageInfo
Point
p632
(dp633
g29
(iimageInfo
Point2d
p634
(dp635
g32
I0
sg33
I0
sbsg34
(iimageInfo
Point2d
p636
(dp637
g32
I0
sg33
I0
sbsg37
(iimageInfo
Point2d
p638
(dp639
g32
I2137
sg33
I2404
sbsg40
(iimageInfo
Point3d
p640
(dp641
g32
I0
sg33
I0
sg43
I0
sbsbsg68
I2138
sg69
I2405
sg70
I0
sg71
(iimageInfo
Point
p642
(dp643
g29
(iimageInfo
Point2d
p644
(dp645
g32
I0
sg33
I0
sbsg34
(iimageInfo
Point2d
p646
(dp647
g32
I0
sg33
I0
sbsg37
(iimageInfo
Point2d
p648
(dp649
g32
I1069
sg33
I1202
sbsg40
(iimageInfo
Point3d
p650
(dp651
g32
I0
sg33
I0
sg43
I0
sbsbsg82
S'NA'
p652
sg84
(iimageInfo
Point
p653
(dp654
g29
(iimageInfo
Point2d
p655
(dp656
g32
I0
sg33
I0
sbsg34
(iimageInfo
Point2d
p657
(dp658
g32
I0
sg33
I0
sbsg37
(iimageInfo
Point2d
p659
(dp660
g32
I0
sg33
I0
sbsg40
(iimageInfo
Point3d
p661
(dp662
g32
I0
sg33
I0
sg43
I0
sbsbsbsS'faces'
p663
(lp664
(iimageInfo
Face
p665
(dp666
S'vertices'
p667
(lp668
(iimageInfo
Point
p669
(dp670
g29
(iimageInfo
Point2d
p671
(dp672
g32
I0
sg33
I0
sbsg34
(iimageInfo
Point2d
p673
(dp674
g32
I0
sg33
I1
sbsg37
(iimageInfo
Point2d
p675
(dp676
g32
I0
sg33
I0
sbsg40
(iimageInfo
Point3d
p677
(dp678
g32
F0.0
sg33
F201.0
sg43
F101.0
sbsba(iimageInfo
Point
p679
(dp680
g29
(iimageInfo
Point2d
p681
(dp682
g32
I0
sg33
I0
sbsg34
(iimageInfo
Point2d
p683
(dp684
g32
I0
sg33
I0
sbsg37
(iimageInfo
Point2d
p685
(dp686
g32
I0
sg33
I0
sbsg40
(iimageInfo
Point3d
p687
(dp688
g32
F0.0
sg33
F201.0
sg43
F505.0
sbsba(iimageInfo
Point
p689
(dp690
g29
(iimageInfo
Point2d
p691
(dp692
g32
I0
sg33
I0
sbsg34
(iimageInfo
Point2d
p693
(dp694
g32
I1
sg33
I0
sbsg37
(iimageInfo
Point2d
p695
(dp696
g32
I0
sg33
I0
sbsg40
(iimageInfo
Point3d
p697
(dp698
g32
F250.0
sg33
F201.0
sg43
F505.0
sbsbasba(iimageInfo
Face
p699
(dp700
g667
(lp701
(iimageInfo
Point
p702
(dp703
g29
(iimageInfo
Point2d
p704
(dp705
g32
I0
sg33
I0
sbsg34
(iimageInfo
Point2d
p706
(dp707
g32
I0
sg33
I1
sbsg37
(iimageInfo
Point2d
p708
(dp709
g32
I0
sg33
I0
sbsg40
(iimageInfo
Point3d
p710
(dp711
g32
F0.0
sg33
F201.0
sg43
F101.0
sbsba(iimageInfo
Point
p712
(dp713
g29
(iimageInfo
Point2d
p714
(dp715
g32
I0
sg33
I0
sbsg34
(iimageInfo
Point2d
p716
(dp717
g32
I1
sg33
I0
sbsg37
(iimageInfo
Point2d
p718
(dp719
g32
I0
sg33
I0
sbsg40
(iimageInfo
Point3d
p720
(dp721
g32
F250.0
sg33
F201.0
sg43
F505.0
sbsba(iimageInfo
Point
p722
(dp723
g29
(iimageInfo
Point2d
p724
(dp725
g32
I0
sg33
I0
sbsg34
(iimageInfo
Point2d
p726
(dp727
g32
I1
sg33
I1
sbsg37
(iimageInfo
Point2d
p728
(dp729
g32
I0
sg33
I0
sbsg40
(iimageInfo
Point3d
p730
(dp731
g32
F250.0
sg33
F201.0
sg43
F101.0
sbsbasbasb.